(lp0
(S'sRNA000008'
p1
S'micF'
p2
S'forward'
p3
I986196
I25
tp4
a(S'sRNA000150'
p5
S'spf'
p6
S'forward'
p7
I789147
I74
tp8
a(S'sRNA000004'
p9
S'dicF'
p10
S'forward'
p11
I105277
I29
tp12
a(S'sRNA000152'
p13
S'oxyS'
p14
S'reverse'
p15
I2852345
I6
tp16
a(S'sRNA000153'
p17
S'oxyS'
p18
S'reverse'
p19
I2852393
I8
tp20
a(S'sRNA000005'
p21
S'rprA'
p22
S'forward'
p23
I2865667
I23
tp24
a(S'sRNA000009'
p25
S'micA'
p26
S'forward'
p27
I1019283
I15
tp28
a(S'sRNA000197'
p29
S'micA'
p30
S'forward'
p31
I849673
I22
tp32
a(S'sRNA000011'
p33
S'gcvB'
p34
S'forward'
p35
I3705731
I28
tp36
a(S'sRNA000012'
p37
S'gcvB'
p38
S'forward'
p39
I1299199
I20
tp40
a(S'sRNA000013'
p41
S'gcvB'
p42
S'forward'
p43
I687014
I33
tp44
a(S'sRNA000014'
p45
S'gcvB'
p46
S'forward'
p47
I3597703
I23
tp48
a(S'sRNA000015'
p49
S'gcvB'
p50
S'forward'
p51
I3595600
I23
tp52
a(S'sRNA000016'
p53
S'gcvB'
p54
S'forward'
p55
I2425846
I25
tp56
a(S'sRNA000017'
p57
S'gcvB'
p58
S'forward'
p59
I3237940
I26
tp60
a(S'sRNA000018'
p61
S'gcvB'
p62
S'forward'
p63
I4427861
I32
tp64
a(S'sRNA000070'
p65
S'omrA'
p66
S'reverse'
p67
I2244801
I25
tp68
a(S'sRNA000073'
p69
S'omrA'
p70
S'reverse'
p71
I584837
I31
tp72
a(S'sRNA000096'
p73
S'omrA'
p74
S'reverse'
p75
I3534617
I18
tp76
a(S'sRNA000214'
p77
S'arcZ'
p78
S'forward'
p79
I2865664
I31
tp80
a(S'sRNA000220'
p81
S'ryhB'
p82
S'reverse'
p83
I3780578
I11
tp84
a(S'sRNA000148'
p85
S'glmZ'
p86
S'forward'
p87
I3911713
I18
tp88
a(S'sRNA000196'
p89
S'cyaR'
p90
S'forward'
p91
I849664
I8
tp92
a(S'sRNA000203'
p93
S'cyaR'
p94
S'forward'
p95
I2795035
I19
tp96
a(S'sRNA000204'
p97
S'cyaR'
p98
S'forward'
p99
I2812753
I14
tp100
a(S'sRNA000205'
p101
S'cyaR'
p102
S'forward'
p103
I1820471
I13
tp104
a(S'sRNA000001'
p105
S'rybB'
p106
S'reverse'
p107
I2310772
I32
tp108
a(S'sRNA000002'
p109
S'rybB'
p110
S'reverse'
p111
I1312031
I32
tp112
a(S'sRNA000097'
p113
S'omrB'
p114
S'reverse'
p115
I2244801
I25
tp116
a(S'sRNA000099'
p117
S'omrB'
p118
S'reverse'
p119
I584837
I31
tp120
a(S'sRNA000121'
p121
S'omrB'
p122
S'reverse'
p123
I3534617
I18
tp124
a(S'sRNA000217'
p125
S'ryeB'
p126
S'reverse'
p127
I1921128
I103
tp128
a(S'sRNA000198'
p129
S'sibA'
p130
S'forward'
p131
I2151373
I59
tp132
a(S'sRNA000199'
p133
S'sibB'
p134
S'forward'
p135
I2151705
I56
tp136
a(S'sRNA000200'
p137
S'sibC'
p138
S'forward'
p139
I3054912
I59
tp140
a(S'sRNA000003'
p141
S'micC'
p142
S'forward'
p143
I2310786
I26
tp144
a(S'sRNA000201'
p145
S'sibD'
p146
S'reverse'
p147
I3192788
I59
tp148
a(S'sRNA000149'
p149
S'gadY'
p150
S'forward'
p151
I3663750
I65
tp152
a(S'sRNA000218'
p153
S'micM'
p154
S'forward'
p155
I707538
I11
tp156
a(S'sRNA000172'
p157
S'sgrS'
p158
S'forward'
p159
I1157063
I32
tp160
a(S'sRNA000006'
p161
S'dsrA'
p162
S'reverse'
p163
I2865670
I22
tp164
a(S'sRNA000007'
p165
S'dsrA'
p166
S'reverse'
p167
I1292127
I12
tp168
a(S'sRNA000177'
p169
S'istr-1'
p170
S'reverse'
p171
I3851441
I43
tp172
a(S'sRNA000178'
p173
S'istr-1'
p174
S'reverse'
p175
I3851551
I43
tp176
a(S'sRNA000182'
p177
S'rseX'
p178
S'forward'
p179
I2310772
I30
tp180
a(S'sRNA000183'
p181
S'rseX'
p182
S'forward'
p183
I1019284
I14
tp184
a(S'sRNA000194'
p185
S'ohsC'
p186
S'forward'
p187
I2698295
I18
tp188
a(S'sRNA000195'
p189
S'ryfD'
p190
S'reverse'
p191
I2732178
I22
tp192
a(S'sRNA000202'
p193
S'sibE'
p194
S'reverse'
p195
I3193163
I59
tp196
a(S'sRNA000215'
p197
S'mgrR'
p198
S'reverse'
p199
I3708491
I14
tp200
a(S'sRNA000216'
p201
S'mgrR'
p202
S'reverse'
p203
I2968448
I11
tp204
a(S'sRNA000209'
p205
S'fnrS'
p206
S'forward'
p207
I1733372
I33
tp208
a(S'sRNA000211'
p209
S'fnrS'
p210
S'forward'
p211
I1922976
I34
tp212
a.