(lp0
(VECK120030287
p1
VCynR-CynR
p2
I357924
I357932
tp3
a(VECK120011531
p4
VFis
p5
I3408178
I3408192
tp6
a(VECK125145834
p7
VNtrC
p8
I3416890
I3416906
tp9
a(VECK120011533
p10
VFis
p11
I3408286
I3408300
tp12
a(VECK125145832
p13
VNtrC
p14
I1073365
I1073381
tp15
a(VECK120011535
p16
VFur
p17
I3149449
I3149467
tp18
a(VECK120030281
p19
VTyrR-TyrR
p20
I121623
I121640
tp21
a(VECK120011537
p22
VIHF
p23
I3408148
I3408160
tp24
a(VECK120011539
p25
VFur
p26
I1160847
I1160865
tp27
a(VECK120014071
p28
VNarL
p29
I4346737
I4346752
tp30
a(VECK120014077
p31
VIHF
p32
I4540635
I4540647
tp33
a(VECK120030289
p34
VArcA
p35
I2458543
I2458557
tp36
a(VECK120014079
p37
VOxyR-OxyR
p38
I890035
I890051
tp39
a(VECK120020673
p40
VFNR
p41
I3265257
I3265270
tp42
a(VECK120020671
p43
VFNR
p44
I3265214
I3265227
tp45
a(VECK120020677
p46
VFNR
p47
I4131732
I4131745
tp48
a(VECK125145830
p49
VNtrC
p50
I1561211
I1561227
tp51
a(VECK120020675
p52
VFNR
p53
I3550653
I3550666
tp54
a(VECK125147052
p55
VBasR
p56
I1078137
I1078156
tp57
a(VECK120020679
p58
VFNR
p59
I4131716
I4131729
tp60
a(VECK120033152
p61
VArgR
p62
I2424913
I2424930
tp63
a(VECK120051338
p64
VNarL
p65
I1398383
I1398398
tp66
a(VECK120011625
p67
VFis
p68
I1328868
I1328882
tp69
a(VECK120011621
p70
VFis
p71
I1328935
I1328949
tp72
a(VECK120014073
p73
VDnaA
p74
I4044858
I4044866
tp75
a(VECK120011448
p76
VPhoB
p77
I4238283
I4238301
tp78
a(VECK120029583
p79
VFis
p80
I2342571
I2342585
tp81
a(VECK120011446
p82
VCRP
p83
I4238287
I4238308
tp84
a(VECK120029581
p85
VFis
p86
I2342642
I2342656
tp87
a(VECK120011440
p88
VGlcC-GlcC
p89
I3126267
I3126281
tp90
a(VECK120029587
p91
VFis
p92
I2342447
I2342461
tp93
a(VECK120011443
p94
VCRP
p95
I3408194
I3408215
tp96
a(VECK125145838
p97
VUxuR
p98
I4552406
I4552423
tp99
a(VECK120034556
p100
VFNR
p101
I1752702
I1752715
tp102
a(VECK120012857
p103
VPurR
p104
I1191010
I1191025
tp105
a(VECK120012852
p106
VPhoB-PhoB
p107
I416285
I416303
tp108
a(VECK120012850
p109
VPhoB
p110
I400891
I400909
tp111
a(VECK120012859
p112
VPurR
p113
I2595794
I2595809
tp114
a(VECK125108621
p115
VCRP
p116
I312540
I312561
tp117
a(VECK120015810
p118
VRcsAB
p119
I2135683
I2135697
tp120
a(VECK125108625
p121
VRhaS-RhaR
p122
I4095652
I4095668
tp123
a(VECK120015814
p124
VRcsAB
p125
I2021681
I2021695
tp126
a(VECK125108629
p127
VGlrR
p128
I2689575
I2689592
tp129
a(VECK120034558
p130
VNarP
p131
I1752658
I1752664
tp132
a(VECK120034060
p133
VFis
p134
I3371685
I3371703
tp135
a(VECK120015654
p136
VPhoP
p137
I578169
I578185
tp138
a(VECK120015656
p139
VPhoP
p140
I1680110
I1680126
tp141
a(VECK120015652
p142
VPhoP
p143
I3346407
I3346423
tp144
a(VECK120015658
p145
VPhoP-PhoP
p146
I1717760
I1717776
tp147
a(VECK120012923
p148
VCysB
p149
I2530299
I2530340
tp150
a(VECK120012921
p151
VCysB
p152
I2890020
I2890061
tp153
a(VECK120012927
p154
VFadR
p155
I2459202
I2459218
tp156
a(VECK120012925
p157
VFadR
p158
I4029020
I4029036
tp159
a(VECK120012929
p160
VFadR
p161
I2459227
I2459243
tp162
a(VECK120015254
p163
VPhoB
p164
I1930851
I1930871
tp165
a(VECK120015256
p166
VCueR
p167
I816242
I816260
tp168
a(VECK120023171
p169
VArcA-ArcA-ArcA-ArcA
p170
I4271954
I4271968
tp171
a(VECK120023170
p172
VArcA-ArcA-ArcA-ArcA
p173
I4272017
I4272031
tp174
a(VECK120012708
p175
VGalS
p176
I2239633
I2239648
tp177
a(VECK120012702
p178
VCRP
p179
I2239764
I2239785
tp180
a(VECK120012700
p181
VNarL
p182
I4380431
I4380446
tp183
a(VECK120012706
p184
VGalR-GalS
p185
I2239786
I2239801
tp186
a(VECK120051334
p187
VNarL
p188
I1398350
I1398365
tp189
a(VECK120051332
p190
VNarL
p191
I1398341
I1398356
tp192
a(VECK125145807
p193
VCra-Cra
p194
I2836112
I2836129
tp195
a(VECK120011840
p196
VMetJ
p197
I4126603
I4126618
tp198
a(VECK120011842
p199
VMetJ
p200
I4126613
I4126628
tp201
a(VECK120011844
p202
VMetJ
p203
I4126611
I4126626
tp204
a(VECK120051330
p205
VFis
p206
I1398383
I1398397
tp207
a(VECK120011846
p208
VMetJ
p209
I4126621
I4126636
tp210
a(VECK120011848
p211
VMetJ
p212
I4130562
I4130577
tp213
a(VECK120012638
p214
VTyrR
p215
I405450
I405467
tp216
a(VECK120012636
p217
VTrpR
p218
I1786296
I1786313
tp219
a(VECK120012634
p220
VTyrR
p221
I784767
I784784
tp222
a(VECK125147050
p223
VBasR
p224
I480403
I480422
tp225
a(VECK120012630
p226
VTyrR
p227
I2739244
I2739261
tp228
a(VECK120018499
p229
VAllS
p230
I545722
I545736
tp231
a(VECK120018491
p232
VAcrR-AcrR-EnvR
p233
I484933
I484956
tp234
a(VECK120048943
p235
VRelB-RelE
p236
I1643895
I1643905
tp237
a(VECK120018495
p238
VBaeR
p239
I2151966
I2151985
tp240
a(VECK120018496
p241
VCRP-CRP
p242
I1599402
I1599423
tp243
a(VECK125135214
p244
VCsgD
p245
I1067111
I1067124
tp246
a(VECK125135216
p247
VCsgD
p248
I1067141
I1067154
tp249
a(VECK125135218
p250
VCRP-CRP
p251
I118698
I118719
tp252
a(VECK125141459
p253
VCRP
p254
I1403817
I1403838
tp255
a(VECK120011623
p256
VFis
p257
I1328903
I1328917
tp258
a(VECK125135108
p259
VGadW-GadX
p260
I3665742
I3665761
tp261
a(VECK125135106
p262
VGadX-GadW-GadX-GadW
p263
I3662827
I3662846
tp264
a(VECK125135100
p265
VGadW-GadX
p266
I3651868
I3651887
tp267
a(VECK125141213
p268
VArgP
p269
I3057706
I3057725
tp270
a(VECK125141211
p271
VArgP
p272
I3057726
I3057745
tp273
a(VECK125141217
p274
VArgP
p275
I2246635
I2246654
tp276
a(VECK125141215
p277
VArgP
p278
I3066902
I3066921
tp279
a(VECK125141219
p280
VArgP
p281
I3882044
I3882063
tp282
a(VECK120029620
p283
VArgR
p284
I3352170
I3352187
tp285
a(VECK120012456
p286
VIHF
p287
I3556175
I3556187
tp288
a(VECK120017043
p289
VNarL-NarL-NarP-NarP
p290
I2301628
I2301643
tp291
a(VECK120013381
p292
VDnaA-DnaA
p293
I3598937
I3598945
tp294
a(VECK120013384
p295
VCra
p296
I1194099
I1194116
tp297
a(VECK120013036
p298
VCRP
p299
I2238619
I2238640
tp300
a(VECK120013388
p301
VCRP-CRP-CRP
p302
I3598903
I3598924
tp303
a(VECK120016133
p304
VNorR-NorR
p305
I2830344
I2830356
tp306
a(VECK120016135
p307
VNorR-NorR
p308
I2830323
I2830335
tp309
a(VECK120013147
p310
VH-NS
p311
I1292214
I1292228
tp312
a(VECK120013413
p313
VCRP
p314
I1899906
I1899927
tp315
a(VECK120013416
p316
VMlc
p317
I1899867
I1899889
tp318
a(VECK120013419
p319
VLexA
p320
I3208751
I3208770
tp321
a(VECK120012458
p322
VIHF
p323
I3556185
I3556197
tp324
a(VECK120013149
p325
VIHF
p326
I1793686
I1793698
tp327
a(VECK120013367
p328
VCRP
p329
I2475715
I2475736
tp330
a(VECK120013365
p331
VCRP
p332
I2475745
I2475766
tp333
a(VECK120013030
p334
VCRP
p335
I3265148
I3265169
tp336
a(VECK120013361
p337
VIHF
p338
I3704040
I3704052
tp339
a(VECK120013748
p340
VCysB
p341
I384370
I384411
tp342
a(VECK120029585
p343
VFis
p344
I2342501
I2342515
tp345
a(VECK125160691
p346
VOxyR
p347
I1257066
I1257082
tp348
a(VECK120016624
p349
VIclR
p350
I4213300
I4213306
tp351
a(VECK120016626
p352
VIclR
p353
I4213291
I4213297
tp354
a(VECK120013709
p355
VCRP
p356
I1078378
I1078399
tp357
a(VECK120016620
p358
VIclR
p359
I4213369
I4213375
tp360
a(VECK120016622
p361
VIclR
p362
I4213318
I4213324
tp363
a(VECK120013705
p364
VArcA
p365
I754142
I754156
tp366
a(VECK120013707
p367
VCRP-CRP
p368
I4549473
I4549494
tp369
a(VECK120017085
p370
VGadX-GadX-GadW
p371
I3654879
I3654898
tp372
a(VECK120013701
p373
VArcA
p374
I754037
I754051
tp375
a(VECK120016628
p376
VIclR
p377
I4213281
I4213287
tp378
a(VECK120013703
p379
VArcA
p380
I754430
I754444
tp381
a(VECK120030726
p382
VArsR
p383
I3646482
I3646505
tp384
a(VECK120013966
p385
VCRP
p386
I460462
I460483
tp387
a(VECK120013960
p388
VFis-Fis
p389
I460427
I460441
tp390
a(VECK120013963
p391
VFis-Fis
p392
I460404
I460418
tp393
a(VECK120030315
p394
VMarR
p395
I1617088
I1617109
tp396
a(VECK120013968
p397
VGlpR
p398
I3560398
I3560417
tp399
a(VECK120011709
p400
VFis
p401
I3427206
I3427220
tp402
a(VECK120030317
p403
VSdiA
p404
I102695
I102712
tp405
a(VECK120011703
p406
VFis
p407
I3427133
I3427147
tp408
a(VECK120011701
p409
VFur
p410
I786844
I786862
tp411
a(VECK120011707
p412
VFis
p413
I3427188
I3427202
tp414
a(VECK120011705
p415
VFis
p416
I3427153
I3427167
tp417
a(VECK120013568
p418
VCra-Cra
p419
I2531566
I2531583
tp420
a(VECK120013562
p421
VCRP-CRP
p422
I3484005
I3484026
tp423
a(VECK120013565
p424
VCRP-CRP
p425
I3483905
I3483926
tp426
a(VECK120014065
p427
VNarL
p428
I4346824
I4346839
tp429
a(VECK125145820
p430
VExuR
p431
I3242817
I3242834
tp432
a(VECK120011521
p433
VFur
p434
I840861
I840879
tp435
a(VECK125145822
p436
VLrp
p437
I4164458
I4164469
tp438
a(VECK120011527
p439
VFur
p440
I840851
I840869
tp441
a(VECK125145824
p442
VLrp
p443
I4164652
I4164663
tp444
a(VECK120011525
p445
VFur
p446
I840868
I840886
tp447
a(VECK125145826
p448
VLrp
p449
I4033183
I4033194
tp450
a(VECK125145828
p451
VNtrC
p452
I2425946
I2425962
tp453
a(VECK120011529
p454
VFur
p455
I3150067
I3150085
tp456
a(VECK120014069
p457
VNarL
p458
I4346761
I4346776
tp459
a(VECK120017045
p460
VNarL-NarP
p461
I3491927
I3491942
tp462
a(VECK120019284
p463
VFis
p464
I3729104
I3729122
tp465
a(VECK125161307
p466
VCRP
p467
I1359128
I1359149
tp468
a(VECK120019281
p469
VEvgA
p470
I2585457
I2585474
tp471
a(VECK125161309
p472
VFadR
p473
I1147693
I1147709
tp474
a(VECK120019288
p475
VH-NS
p476
I3654925
I3654939
tp477
a(VECK120020641
p478
VPepA
p479
I29459
I29485
tp480
a(VECK120051321
p481
VLexA
p482
I246517
I246536
tp483
a(VECK120051323
p484
VArcA-ArcA
p485
I1359150
I1359164
tp486
a(VECK120051326
p487
VDnaA
p488
I4390700
I4390708
tp489
a(VECK120051328
p490
VDnaA
p491
I4390767
I4390775
tp492
a(VECK120033147
p493
VNsrR
p494
I913054
I913072
tp495
a(VECK120033146
p496
VNsrR
p497
I4285568
I4285578
tp498
a(VECK120011637
p499
VLrp-Lrp-Lrp-Lrp
p500
I2311156
I2311170
tp501
a(VECK120011632
p502
VLrp-Lrp-Lrp-Lrp
p503
I2311125
I2311139
tp504
a(VECK120015717
p505
VMetJ-MetJ-MetJ
p506
I4010900
I4010915
tp507
a(VECK120015711
p508
VLexA
p509
I1944102
I1944121
tp510
a(VECK120011455
p511
VIHF-IHF
p512
I141330
I141342
tp513
a(VECK120011452
p514
VCRP-CRP
p515
I141284
I141305
tp516
a(VECK120011450
p517
VPhoB
p518
I4238261
I4238279
tp519
a(VECK120012840
p520
VIHF
p521
I986417
I986429
tp522
a(VECK120012842
p523
VIHF
p524
I986371
I986383
tp525
a(VECK120012844
p526
VOmpR
p527
I986396
I986415
tp528
a(VECK120015823
p529
VModE
p530
I2848663
I2848686
tp531
a(VECK125108633
p532
VGlrR
p533
I2689479
I2689496
tp534
a(VECK125108631
p535
VGlrR
p536
I2689542
I2689559
tp537
a(VECK125108623
p538
VRhaS-RhaR
p539
I4095686
I4095702
tp540
a(VECK125108637
p541
VCytR
p542
I3103603
I3103620
tp543
a(VECK125108635
p544
VIHF
p545
I2689525
I2689537
tp546
a(VECK125108639
p547
VCytR
p548
I3103611
I3103629
tp549
a(VECK120033039
p550
VAtoC
p551
I2321286
I2321305
tp552
a(VECK120015620
p553
VLexA
p554
I832259
I832278
tp555
a(VECK120015622
p556
VEvgA-EvgA-EvgA
p557
I2481535
I2481552
tp558
a(VECK120015626
p559
VLexA
p560
I65834
I65853
tp561
a(VECK120015628
p562
VLexA
p563
I932351
I932370
tp564
a(VECK120012939
p565
VLrp-Lrp
p566
I85517
I85531
tp567
a(VECK120012935
p568
VLrp-Lrp
p569
I85453
I85467
tp570
a(VECK120012937
p571
VLrp-Lrp
p572
I85488
I85502
tp573
a(VECK120012931
p574
VLrp-Lrp
p575
I85341
I85355
tp576
a(VECK120012933
p577
VLrp-Lrp
p578
I85372
I85386
tp579
a(VECK120051458
p580
VRcnR-RcnR
p581
I2183867
I2183881
tp582
a(VECK120019268
p583
VCpxR
p584
I2151867
I2151882
tp585
a(VECK120019269
p586
VLexA
p587
I2194468
I2194487
tp588
a(VECK120019264
p589
VCRP
p590
I1733400
I1733421
tp591
a(VECK120019260
p592
VPhoP
p593
I1073348
I1073362
tp594
a(VECK120019261
p595
VNarL-NarP
p596
I4285607
I4285622
tp597
a(VECK120012442
p598
VCRP
p599
I3963636
I3963657
tp600
a(VECK120033968
p601
VFis-Fis
p602
I2350530
I2350544
tp603
a(VECK120012710
p604
VCRP-CRP
p605
I791335
I791356
tp606
a(VECK120033962
p607
VFis
p608
I1644333
I1644347
tp609
a(VECK120033960
p610
VFis
p611
I4029054
I4029072
tp612
a(VECK120012718
p613
VGalR-GalR
p614
I791251
I791266
tp615
a(VECK120033964
p616
VFis-Fis
p617
I2350418
I2350432
tp618
a(VECK120011852
p619
VMetJ
p620
I4130568
I4130583
tp621
a(VECK120011850
p622
VMetJ
p623
I4130570
I4130585
tp624
a(VECK120011854
p625
VMetJ
p626
I4130578
I4130593
tp627
a(VECK125145813
p628
VFur
p629
I2183919
I2183939
tp630
a(VECK120012628
p631
VTyrR
p632
I2739267
I2739284
tp633
a(VECK120012620
p634
VArgR
p635
I4476360
I4476377
tp636
a(VECK120012622
p637
VArgR
p638
I3382663
I3382680
tp639
a(VECK120012624
p640
VArgR
p641
I3382683
I3382700
tp642
a(VECK120012626
p643
VTyrR
p644
I2739319
I2739336
tp645
a(VECK125160689
p646
VOxyR
p647
I1257088
I1257104
tp648
a(VECK120018486
p649
VBaeR
p650
I1823789
I1823808
tp651
a(VECK125095360
p652
VNsrR
p653
I1800673
I1800683
tp654
a(VECK125095362
p655
VNsrR
p656
I3490472
I3490482
tp657
a(VECK125095364
p658
VNsrR
p659
I2751569
I2751579
tp660
a(VECK125095366
p661
VNsrR
p662
I1732194
I1732204
tp663
a(VECK125095368
p664
VNsrR
p665
I1732315
I1732325
tp666
a(VECK125141274
p667
VPdhR
p668
I89546
I89562
tp669
a(VECK125158211
p670
VCRP
p671
I1099467
I1099488
tp672
a(VECK125158213
p673
VCytR
p674
I1099439
I1099466
tp675
a(VECK125135179
p676
VCsgD
p677
I1102552
I1102565
tp678
a(VECK125135171
p679
VCsgD
p680
I1027096
I1027109
tp681
a(VECK125135173
p682
VCsgD
p683
I1103048
I1103061
tp684
a(VECK125135175
p685
VCsgD
p686
I1103018
I1103031
tp687
a(VECK125135177
p688
VCsgD
p689
I1102995
I1103008
tp690
a(VECK125141209
p691
VCRP
p692
I656401
I656422
tp693
a(VECK125141205
p694
VDinJ-YafQ
p695
I656319
I656334
tp696
a(VECK125141207
p697
VDinJ-YafQ
p698
I246519
I246534
tp699
a(VECK120026485
p700
VPurR
p701
I354064
I354079
tp702
a(VECK120048847
p703
VMetJ
p704
I2241814
I2241829
tp705
a(VECK120030366
p706
VCra-Cra-Cra-Cra
p707
I1860707
I1860724
tp708
a(VECK120013172
p709
VLrp
p710
I3597906
I3597917
tp711
a(VECK120013170
p712
VLrp
p713
I3352278
I3352292
tp714
a(VECK125110166
p715
VMarA-SoxS-Rob
p716
I890065
I890084
tp717
a(VECK120020686
p718
VFNR
p719
I3664015
I3664028
tp720
a(VECK120013179
p721
VMalT
p722
I3735451
I3735460
tp723
a(VECK120013604
p724
VFis
p725
I779655
I779669
tp726
a(VECK120013606
p727
VFis
p728
I1030996
I1031010
tp729
a(VECK120013359
p730
VIHF
p731
I1820297
I1820309
tp732
a(VECK120013600
p733
VFis
p734
I563854
I563868
tp735
a(VECK120013813
p736
VCaiF-CaiF
p737
I42257
I42272
tp738
a(VECK120013602
p739
VFis
p740
I696447
I696461
tp741
a(VECK120013353
p742
VLrp
p743
I2796658
I2796672
tp744
a(VECK120013351
p745
VLrp
p746
I2797041
I2797055
tp747
a(VECK120013608
p748
VFis
p749
I1096967
I1096981
tp750
a(VECK120013357
p751
VFNR
p752
I4345426
I4345439
tp753
a(VECK120013355
p754
VFNR
p755
I4345422
I4345435
tp756
a(VECK125109460
p757
VH-NS
p758
I2882380
I2882394
tp759
a(VECK120013194
p760
VMelR-MelR
p761
I4339859
I4339876
tp762
a(VECK120015258
p763
VGalS-GalS-GalR-GalS-GalR-GalR
p764
I791357
I791372
tp765
a(VECK125110187
p766
VFNR
p767
I2627088
I2627101
tp768
a(VECK120013285
p769
VRhaS
p770
I4095560
I4095576
tp771
a(VECK120013287
p772
VCRP
p773
I4095577
I4095598
tp774
a(VECK120013778
p775
VCra
p776
I3770180
I3770197
tp777
a(VECK120013770
p778
VCRP
p779
I121941
I121962
tp780
a(VECK120013774
p781
VCra
p782
I1932725
I1932742
tp783
a(VECK120013776
p784
VCra
p785
I3071834
I3071851
tp786
a(VECK125147058
p787
VCRP-CRP
p788
I1686500
I1686522
tp789
a(VECK120013910
p790
VArcA
p791
I1194226
I1194240
tp792
a(VECK120026335
p793
VCRP
p794
I1445434
I1445455
tp795
a(VECK120013914
p796
VLrp-Lrp-Lrp
p797
I1236673
I1236687
tp798
a(VECK120013918
p799
VLrp-Lrp-Lrp
p800
I1236718
I1236732
tp801
a(VECK120032397
p802
VArgR
p803
I899868
I899885
tp804
a(VECK120011737
p805
VFur
p806
I3579042
I3579060
tp807
a(VECK120032395
p808
VArgR
p809
I903013
I903030
tp810
a(VECK120015252
p811
VKdgR
p812
I1931119
I1931139
tp813
a(VECK120011733
p814
VFis
p815
I223344
I223358
tp816
a(VECK120011731
p817
VFis
p818
I223387
I223401
tp819
a(VECK120013596
p820
VFis
p821
I236830
I236844
tp822
a(VECK120013590
p823
VNagC-NagC
p824
I3913281
I3913303
tp825
a(VECK120013593
p826
VNagC-NagC
p827
I3913434
I3913456
tp828
a(VECK120013598
p829
VFis
p830
I261992
I262006
tp831
a(VECK120014011
p832
VCRP
p833
I3770142
I3770163
tp834
a(VECK120014013
p835
VCRP-CRP
p836
I3559920
I3559941
tp837
a(VECK125161318
p838
VNac
p839
I1509565
I1509579
tp840
a(VECK120014016
p841
VSoxS
p842
I1010839
I1010858
tp843
a(VECK120014018
p844
VFis
p845
I1165085
I1165099
tp846
a(VECK120011284
p847
VNac
p848
I3925111
I3925125
tp849
a(VECK120011282
p850
VNac
p851
I3925054
I3925068
tp852
a(VECK120011280
p853
VNac
p854
I1840369
I1840383
tp855
a(VECK120019293
p856
VHU
p857
I791282
I791315
tp858
a(VECK120019292
p859
VHU
p860
I791287
I791320
tp861
a(VECK120013828
p862
VNarL-NarP
p863
I1545288
I1545303
tp864
a(VECK120013824
p865
VIHF
p866
I576231
I576243
tp867
a(VECK120013826
p868
VOmpR
p869
I576129
I576148
tp870
a(VECK120013820
p871
VCRP
p872
I576156
I576177
tp873
a(VECK120013822
p874
VCRP
p875
I576114
I576135
tp876
a(VECK125108733
p877
VFNR
p878
I1407104
I1407117
tp879
a(VECK125108737
p880
VPhoP
p881
I1620974
I1620990
tp882
a(VECK125108735
p883
VMurR
p884
I2543933
I2543947
tp885
a(VECK120033970
p886
VFis-Fis
p887
I2350537
I2350551
tp888
a(VECK120011600
p889
VFNR-FNR-FNR-FNR
p890
I770385
I770398
tp891
a(VECK120011609
p892
VFNR-FNR-FNR-FNR
p893
I770333
I770346
tp894
a(VECK120033972
p895
VFis-Fis
p896
I2350579
I2350593
tp897
a(VECK120015707
p898
VLexA
p899
I1944103
I1944122
tp900
a(VECK120015705
p901
VLexA
p902
I1944050
I1944069
tp903
a(VECK120015703
p904
VCRP
p905
I1860569
I1860590
tp906
a(VECK120015701
p907
VAgaR
p908
I3276735
I3276754
tp909
a(VECK120033974
p910
VFis-Fis
p911
I2350632
I2350646
tp912
a(VECK120014126
p913
VCRP
p914
I131471
I131492
tp915
a(VECK120014121
p916
VCRP
p917
I1333754
I1333775
tp918
a(VECK120015709
p919
VLexA
p920
I1944051
I1944070
tp921
a(VECK120014123
p922
VArcA
p923
I1333764
I1333778
tp924
a(VECK120014067
p925
VNarL
p926
I4346778
I4346793
tp927
a(VECK120011192
p928
VSoxS-Rob-MarA
p929
I1617046
I1617065
tp930
a(VECK120011197
p931
VTyrR
p932
I3303980
I3303997
tp933
a(VECK120018510
p934
VGalR-GalS
p935
I3086208
I3086223
tp936
a(VECK125108609
p937
VCytR
p938
I4615203
I4615223
tp939
a(VECK125108605
p940
VCytR-CytR-CytR
p941
I3598936
I3598954
tp942
a(VECK125108603
p943
VCytR
p944
I4122544
I4122564
tp945
a(VECK125108601
p946
VCytR
p947
I4122580
I4122602
tp948
a(VECK120033041
p949
VPhoB
p950
I2053013
I2053031
tp951
a(VECK120033043
p952
VPhoB
p953
I3788272
I3788298
tp954
a(VECK120033045
p955
VPhoB
p956
I3788222
I3788241
tp957
a(VECK120011519
p958
VIHF
p959
I3909569
I3909581
tp960
a(VECK120011516
p961
VNarL
p962
I3144453
I3144468
tp963
a(VECK120033049
p964
VTyrR
p965
I49642
I49659
tp966
a(VECK120011514
p967
VNarL
p968
I3144428
I3144443
tp969
a(VECK120011512
p970
VArcA
p971
I3144435
I3144449
tp972
a(VECK120012545
p973
VH-NS
p974
I365614
I365628
tp975
a(VECK120012898
p976
VLexA-LexA
p977
I4271978
I4271997
tp978
a(VECK120012547
p979
VH-NS
p980
I365627
I365641
tp981
a(VECK120012541
p982
VH-NS
p983
I365565
I365579
tp984
a(VECK120012543
p985
VH-NS
p986
I365591
I365605
tp987
a(VECK120012892
p988
VTrpR
p989
I1321135
I1321152
tp990
a(VECK125160681
p991
VLrp
p992
I1878892
I1878903
tp993
a(VECK120012890
p994
VLexA
p995
I1020162
I1020181
tp996
a(VECK125160683
p997
VLrp
p998
I1878859
I1878870
tp999
a(VECK120012896
p1000
VTyrR
p1001
I1384656
I1384673
tp1002
a(VECK120012549
p1003
VH-NS
p1004
I791299
I791313
tp1005
a(VECK120012894
p1006
VTrpR
p1007
I4630718
I4630735
tp1008
a(VECK125160687
p1009
VLrp
p1010
I1878788
I1878799
tp1011
a(VECK120011992
p1012
VSoxS
p1013
I890049
I890068
tp1014
a(VECK120015632
p1015
VAllR-AllR
p1016
I531553
I531569
tp1017
a(VECK120011997
p1018
VArcA
p1019
I4098766
I4098780
tp1020
a(VECK120011995
p1021
VArcA
p1022
I4098755
I4098769
tp1023
a(VECK120011999
p1024
VArcA
p1025
I4098738
I4098752
tp1026
a(VECK120035004
p1027
VCreB
p1028
I4636122
I4636139
tp1029
a(VECK120014110
p1030
VCRP-CRP
p1031
I1666675
I1666696
tp1032
a(VECK120012949
p1033
VCRP
p1034
I3886364
I3886385
tp1035
a(VECK120012941
p1036
VLrp-Lrp
p1037
I85537
I85551
tp1038
a(VECK120012943
p1039
VPurR
p1040
I552395
I552410
tp1041
a(VECK120012945
p1042
VDnaA
p1043
I3598913
I3598921
tp1044
a(VECK120012947
p1045
VLrp
p1046
I3790659
I3790673
tp1047
a(VECK120012438
p1048
VCRP
p1049
I1327316
I1327337
tp1050
a(VECK120030260
p1051
VNhaR
p1052
I1091779
I1091795
tp1053
a(VECK120019276
p1054
VLexA
p1055
I1993550
I1993569
tp1056
a(VECK120019275
p1057
VLexA
p1058
I1808201
I1808220
tp1059
a(VECK120019273
p1060
VLexA
p1061
I3646003
I3646022
tp1062
a(VECK120051468
p1063
VCRP
p1064
I2837369
I2837390
tp1065
a(VECK120012760
p1066
VKdpE
p1067
I728127
I728143
tp1068
a(VECK120030262
p1069
VNhaR
p1070
I1091801
I1091817
tp1071
a(VECK120012764
p1072
VLacI
p1073
I365146
I365166
tp1074
a(VECK120012094
p1075
VGadE-RcsB
p1076
I3665683
I3665702
tp1077
a(VECK120012768
p1078
VLacI
p1079
I365547
I365567
tp1080
a(VECK120012098
p1081
VGntR
p1082
I3575645
I3575664
tp1083
a(VECK120033958
p1084
VFis
p1085
I29461
I29479
tp1086
a(VECK125145815
p1087
VFur
p1088
I2183925
I2183945
tp1089
a(VECK120051488
p1090
VNsrR
p1091
I2683833
I2683843
tp1092
a(VECK120051484
p1093
VNsrR-NsrR
p1094
I1445327
I1445337
tp1095
a(VECK120051486
p1096
VNsrR
p1097
I2683776
I2683786
tp1098
a(VECK120011865
p1099
VCRP
p1100
I2663370
I2663391
tp1101
a(VECK120011862
p1102
VCRP
p1103
I2786870
I2786891
tp1104
a(VECK120051482
p1105
VNsrR-NsrR
p1106
I2848548
I2848558
tp1107
a(VECK120012385
p1108
VFur-Fur
p1109
I2244959
I2244977
tp1110
a(VECK120012383
p1111
VMalT
p1112
I3550623
I3550632
tp1113
a(VECK120012381
p1114
VMalT
p1115
I3550601
I3550610
tp1116
a(VECK120012388
p1117
VPspF
p1118
I4260744
I4260760
tp1119
a(VECK120012169
p1120
VUlaR
p1121
I4417664
I4417683
tp1122
a(VECK120012167
p1123
VUlaR
p1124
I4417921
I4417940
tp1125
a(VECK120013346
p1126
VOmpR
p1127
I1102607
I1102626
tp1128
a(VECK120012369
p1129
VMalT
p1130
I3735414
I3735423
tp1131
a(VECK120034080
p1132
VFis
p1133
I3729001
I3729019
tp1134
a(VECK120012364
p1135
VNtrC-NtrC
p1136
I4056262
I4056278
tp1137
a(VECK120012367
p1138
VMalT
p1139
I3735427
I3735436
tp1140
a(VECK120013340
p1141
VCRP
p1142
I4609166
I4609187
tp1143
a(VECK125141476
p1144
VCRP
p1145
I3048929
I3048950
tp1146
a(VECK125141477
p1147
VCRP
p1148
I3049097
I3049118
tp1149
a(VECK120048991
p1150
VCra
p1151
I1785223
I1785238
tp1152
a(VECK125141478
p1153
VGcvA
p1154
I3048853
I3048867
tp1155
a(VECK125141479
p1156
VGcvA-GcvA
p1157
I2940646
I2940660
tp1158
a(VECK125095372
p1159
VNsrR
p1160
I4472100
I4472110
tp1161
a(VECK125095370
p1162
VNsrR
p1163
I1473123
I1473133
tp1164
a(VECK125095376
p1165
VNsrR
p1166
I2696525
I2696535
tp1167
a(VECK125158209
p1168
VFadR
p1169
I1234110
I1234126
tp1170
a(VECK125095374
p1171
VNsrR
p1172
I1863739
I1863749
tp1173
a(VECK125158207
p1174
VCRP
p1175
I1685207
I1685228
tp1176
a(VECK125158205
p1177
VCRP
p1178
I1684776
I1684797
tp1179
a(VECK125095378
p1180
VNsrR
p1181
I229082
I229092
tp1182
a(VECK125158203
p1183
VCRP
p1184
I1686391
I1686412
tp1185
a(VECK125158201
p1186
VMqsA
p1187
I921790
I921807
tp1188
a(VECK125158199
p1189
VMqsA
p1190
I922023
I922040
tp1191
a(VECK125135163
p1192
VCsgD-CsgD-CsgD
p1193
I2011093
I2011106
tp1194
a(VECK125135161
p1195
VCsgD
p1196
I3299329
I3299342
tp1197
a(VECK125135165
p1198
VCsgD-CsgD-CsgD
p1199
I2011078
I2011091
tp1200
a(VECK120016739
p1201
VFlhDC-FlhDC
p1202
I2011092
I2011109
tp1203
a(VECK120016733
p1204
VFlhDC
p1205
I2017535
I2017551
tp1206
a(VECK125141272
p1207
VPdhR
p1208
I3126146
I3126162
tp1209
a(VECK120016737
p1210
VFlhDC
p1211
I1964299
I1964316
tp1212
a(VECK120016735
p1213
VFlhDC
p1214
I1964271
I1964287
tp1215
a(VECK125134940
p1216
VCra
p1217
I2261604
I2261621
tp1218
a(VECK120051315
p1219
VPutA
p1220
I1078132
I1078137
tp1221
a(VECK125161315
p1222
VRbsR
p1223
I1700169
I1700188
tp1224
a(VECK120051317
p1225
VPutA
p1226
I1078334
I1078339
tp1227
a(VECK125135151
p1228
VHipAB-HipB
p1229
I1590487
I1590506
tp1230
a(VECK120013168
p1231
VLrp
p1232
I931592
I931606
tp1233
a(VECK125110174
p1234
VMarA
p1235
I1521200
I1521219
tp1236
a(VECK125110176
p1237
VMarA-Rob-SoxS
p1238
I604710
I604729
tp1239
a(VECK120013161
p1240
VIHF
p1241
I3265212
I3265224
tp1242
a(VECK125110170
p1243
VRob-MarA-SoxS
p1244
I1333744
I1333763
tp1245
a(VECK120016427
p1246
VNtrC-NtrC
p1247
I4056167
I4056183
tp1248
a(VECK120016424
p1249
VNtrC-NtrC
p1250
I4056190
I4056206
tp1251
a(VECK120013616
p1252
VFis
p1253
I2516344
I2516358
tp1254
a(VECK120013614
p1255
VFis
p1256
I2464249
I2464263
tp1257
a(VECK120013612
p1258
VFis
p1259
I2284156
I2284170
tp1260
a(VECK120013610
p1261
VFis
p1262
I1286959
I1286973
tp1263
a(VECK120034489
p1264
VLrp
p1265
I3654904
I3654918
tp1266
a(VECK120013349
p1267
VLrp
p1268
I2797090
I2797104
tp1269
a(VECK120048941
p1270
VRelB-RelE
p1271
I1643935
I1643946
tp1272
a(VECK120013299
p1273
VCra
p1274
I1297593
I1297608
tp1275
a(VECK120013292
p1276
VGntR
p1277
I1932600
I1932619
tp1278
a(VECK120013290
p1279
VNtrC-NtrC
p1280
I4056211
I4056227
tp1281
a(VECK120013297
p1282
VCRP
p1283
I3575726
I3575747
tp1284
a(VECK120013294
p1285
VGntR
p1286
I1932821
I1932840
tp1287
a(VECK125145836
p1288
VTorR
p1289
I3665748
I3665757
tp1290
a(VECK120013763
p1291
VLrp
p1292
I4540507
I4540521
tp1293
a(VECK120014026
p1294
VFNR
p1295
I4285646
I4285659
tp1296
a(VECK120013767
p1297
VLrp
p1298
I4540536
I4540550
tp1299
a(VECK120013765
p1300
VLrp
p1301
I4540476
I4540490
tp1302
a(VECK120030701
p1303
VFis-Fis-Fis
p1304
I3483876
I3483890
tp1305
a(VECK120030708
p1306
VFur
p1307
I624063
I624081
tp1308
a(VECK120013908
p1309
VFNR
p1310
I2848811
I2848824
tp1311
a(VECK120011721
p1312
VFis
p1313
I4205709
I4205723
tp1314
a(VECK120011723
p1315
VFis
p1316
I2729534
I2729548
tp1317
a(VECK120011725
p1318
VFis
p1319
I2729554
I2729568
tp1320
a(VECK120011727
p1321
VFis
p1322
I2729575
I2729589
tp1323
a(VECK120011729
p1324
VFis
p1325
I223407
I223421
tp1326
a(VECK120013586
p1327
VFis
p1328
I3754686
I3754700
tp1329
a(VECK120013584
p1330
VFis
p1331
I3754664
I3754678
tp1332
a(VECK120013582
p1333
VFis
p1334
I3754599
I3754613
tp1335
a(VECK120013580
p1336
VCRP-CRP
p1337
I4098672
I4098693
tp1338
a(VECK120013588
p1339
VFis
p1340
I3754709
I3754723
tp1341
a(VECK120014003
p1342
VFis
p1343
I1297671
I1297685
tp1344
a(VECK120014001
p1345
VFNR
p1346
I1297568
I1297581
tp1347
a(VECK120051456
p1348
VRcnR-RcnR
p1349
I2183887
I2183901
tp1350
a(VECK120014007
p1351
VFis
p1352
I1297777
I1297791
tp1353
a(VECK120014005
p1354
VFis
p1355
I1297697
I1297711
tp1356
a(VECK120011290
p1357
VFis
p1358
I4164281
I4164295
tp1359
a(VECK120014009
p1360
VCRP
p1361
I3769939
I3769960
tp1362
a(VECK120011292
p1363
VFis
p1364
I4164240
I4164254
tp1365
a(VECK120011296
p1366
VH-NS
p1367
I4164300
I4164314
tp1368
a(VECK120013839
p1369
VLrp
p1370
I2310783
I2310794
tp1371
a(VECK120013837
p1372
VLexA
p1373
I738659
I738678
tp1374
a(VECK120013834
p1375
VCRP-CRP
p1376
I3740581
I3740602
tp1377
a(VECK120013832
p1378
VLldR
p1379
I3775330
I3775352
tp1380
a(VECK120011618
p1381
VIHF
p1382
I3491915
I3491927
tp1383
a(VECK120011616
p1384
VFis
p1385
I3492024
I3492038
tp1386
a(VECK120017118
p1387
VNtrC
p1388
I3416860
I3416876
tp1389
a(VECK120017116
p1390
VNtrC
p1391
I1073386
I1073402
tp1392
a(VECK120017117
p1393
VNtrC
p1394
I1561232
I1561248
tp1395
a(VECK120011475
p1396
VMetJ
p1397
I222724
I222739
tp1398
a(VECK120011477
p1399
VMetJ
p1400
I222732
I222747
tp1401
a(VECK120051672
p1402
VZur
p1403
I312008
I312030
tp1404
a(VECK120014138
p1405
VArcA
p1406
I131369
I131383
tp1407
a(VECK120014136
p1408
VArcA
p1409
I131373
I131387
tp1410
a(VECK120014134
p1411
VArcA
p1412
I131399
I131413
tp1413
a(VECK120014132
p1414
VArcA
p1415
I131393
I131407
tp1416
a(VECK120014130
p1417
VArcA
p1418
I131455
I131469
tp1419
a(VECK120011184
p1420
VFur
p1421
I4514767
I4514785
tp1422
a(VECK120011181
p1423
VFur-Fur
p1424
I611873
I611891
tp1425
a(VECK120011188
p1426
VFis
p1427
I1617029
I1617043
tp1428
a(VECK125108619
p1429
VCRP
p1430
I1986063
I1986084
tp1431
a(VECK125108611
p1432
VCRP
p1433
I1490400
I1490421
tp1434
a(VECK125108613
p1435
VFis
p1436
I1490307
I1490321
tp1437
a(VECK125108615
p1438
VFis
p1439
I1490396
I1490410
tp1440
a(VECK125108617
p1441
VCRP
p1442
I1986033
I1986054
tp1443
a(VECK120033051
p1444
VIHF
p1445
I49728
I49740
tp1446
a(VECK120033056
p1447
VNrdR
p1448
I2342794
I2342809
tp1449
a(VECK120033054
p1450
VNrdR
p1451
I2342762
I2342777
tp1452
a(VECK120011500
p1453
VPhoP-PhoP
p1454
I1189731
I1189747
tp1455
a(VECK120033058
p1456
VNrdR
p1457
I2798656
I2798671
tp1458
a(VECK120012557
p1459
VCRP
p1460
I3371692
I3371713
tp1461
a(VECK120012884
p1462
VArcA
p1463
I4098765
I4098779
tp1464
a(VECK120012555
p1465
VH-NS
p1466
I791344
I791358
tp1467
a(VECK120012886
p1468
VFur
p1469
I4098731
I4098749
tp1470
a(VECK120012553
p1471
VH-NS
p1472
I791333
I791347
tp1473
a(VECK120012551
p1474
VH-NS
p1475
I791315
I791329
tp1476
a(VECK120012882
p1477
VCRP
p1478
I3598910
I3598931
tp1479
a(VECK120015606
p1480
VGlpR-GlpR
p1481
I2350505
I2350524
tp1482
a(VECK120011987
p1483
VArcA
p1484
I1165273
I1165287
tp1485
a(VECK120011981
p1486
VArcA
p1487
I1165243
I1165257
tp1488
a(VECK120012888
p1489
VFur
p1490
I4098737
I4098755
tp1491
a(VECK120011983
p1492
VArcA
p1493
I1165259
I1165273
tp1494
a(VECK120012959
p1495
VTyrR
p1496
I4265138
I4265155
tp1497
a(VECK120012953
p1498
VPhoB
p1499
I259461
I259479
tp1500
a(VECK120012951
p1501
VPhoB
p1502
I259485
I259504
tp1503
a(VECK120012957
p1504
VTyrR
p1505
I4265115
I4265132
tp1506
a(VECK120012955
p1507
VPhoB
p1508
I259405
I259423
tp1509
a(VECK120051470
p1510
VAscG
p1511
I347751
I347756
tp1512
a(VECK120012429
p1513
VOxyR
p1514
I1762644
I1762660
tp1515
a(VECK120051472
p1516
VAscG
p1517
I347739
I347744
tp1518
a(VECK120051474
p1519
VAscG
p1520
I347729
I347734
tp1521
a(VECK120051476
p1522
VAscG
p1523
I347722
I347727
tp1524
a(VECK120012423
p1525
VArcA
p1526
I1486208
I1486222
tp1527
a(VECK120051478
p1528
VAscG
p1529
I347711
I347716
tp1530
a(VECK120015288
p1531
VGntR
p1532
I3575658
I3575677
tp1533
a(VECK120012427
p1534
VArcA
p1535
I1486070
I1486084
tp1536
a(VECK120012425
p1537
VArcA
p1538
I1486219
I1486233
tp1539
a(VECK120012772
p1540
VLexA
p1541
I4255091
I4255110
tp1542
a(VECK120033943
p1543
VFur-Fur
p1544
I621422
I621440
tp1545
a(VECK120033945
p1546
VFur-Fur
p1547
I621434
I621452
tp1548
a(VECK120012776
p1549
VCRP-CRP
p1550
I4244553
I4244574
tp1551
a(VECK120033947
p1552
VFur-Fur
p1553
I621440
I621458
tp1554
a(VECK120012774
p1555
VLexA
p1556
I4255112
I4255131
tp1557
a(VECK120012779
p1558
VCRP-CRP
p1559
I4244616
I4244637
tp1560
a(VECK120011878
p1561
VFNR
p1562
I865577
I865590
tp1563
a(VECK120051499
p1564
VNsrR
p1565
I1165215
I1165225
tp1566
a(VECK120051497
p1567
VNsrR
p1568
I2830304
I2830314
tp1569
a(VECK120011870
p1570
VIHF-IHF-IHF
p1571
I2311028
I2311040
tp1572
a(VECK120051495
p1573
VNsrR
p1574
I2229844
I2229854
tp1575
a(VECK120051492
p1576
VNsrR
p1577
I122883
I122893
tp1578
a(VECK120051490
p1579
VNsrR
p1580
I4285622
I4285640
tp1581
a(VECK125160693
p1582
VLexA
p1583
I3646025
I3646044
tp1584
a(VECK120048773
p1585
VAsnC-AsnC
p1586
I3925133
I3925146
tp1587
a(VECK120048775
p1588
VAsnC-AsnC
p1589
I3925036
I3925049
tp1590
a(VECK125109818
p1591
VNhaR
p1592
I17384
I17400
tp1593
a(VECK120012390
p1594
VIHF
p1595
I4260794
I4260806
tp1596
a(VECK120012392
p1597
VFur
p1598
I3150073
I3150091
tp1599
a(VECK120012394
p1600
VFur
p1601
I623948
I623966
tp1602
a(VECK120012396
p1603
VFur
p1604
I1309044
I1309062
tp1605
a(VECK120012398
p1606
VFur
p1607
I4514770
I4514788
tp1608
a(VECK125109812
p1609
VPhoP-PhoP
p1610
I1211373
I1211389
tp1611
a(VECK125109813
p1612
VFhlA
p1613
I4297528
I4297541
tp1614
a(VECK125109814
p1615
VFhlA
p1616
I2847922
I2847935
tp1617
a(VECK125109815
p1618
VFhlA
p1619
I2848561
I2848574
tp1620
a(VECK125109816
p1621
VNhaR
p1622
I17447
I17463
tp1623
a(VECK125109817
p1624
VNhaR
p1625
I17416
I17432
tp1626
a(VECK120012179
p1627
VTrpR
p1628
I1321127
I1321144
tp1629
a(VECK120048912
p1630
VCra-Cra-Cra
p1631
I121840
I121857
tp1632
a(VECK120048915
p1633
VCra
p1634
I1899989
I1900004
tp1635
a(VECK120048918
p1636
VLrp
p1637
I2306701
I2306712
tp1638
a(VECK120051449
p1639
VNsrR-NsrR
p1640
I1999832
I1999842
tp1641
a(VECK120012172
p1642
VFNR
p1643
I2848705
I2848718
tp1644
a(VECK120033004
p1645
VArcA
p1646
I3775314
I3775328
tp1647
a(VECK120015975
p1648
VNarL
p1649
I1276987
I1277002
tp1650
a(VECK120012374
p1651
VCRP-CRP
p1652
I4244582
I4244603
tp1653
a(VECK120012371
p1654
VMalT-MalT
p1655
I4244534
I4244543
tp1656
a(VECK120035048
p1657
VCRP
p1658
I2165085
I2165106
tp1659
a(VECK120015753
p1660
VRbsR
p1661
I3931343
I3931362
tp1662
a(VECK120033000
p1663
VArcA
p1664
I127683
I127697
tp1665
a(VECK120035040
p1666
VAcrR
p1667
I2311134
I2311157
tp1668
a(VECK120035046
p1669
VMarA
p1670
I467501
I467520
tp1671
a(VECK120035044
p1672
VNemR-RutR
p1673
I1724017
I1724032
tp1674
a(VECK120015755
p1675
VMlc
p1676
I1899933
I1899955
tp1677
a(VECK120012085
p1678
VCRP
p1679
I3904771
I3904792
tp1680
a(VECK120012081
p1681
VFis
p1682
I3904740
I3904754
tp1683
a(VECK120012083
p1684
VFis
p1685
I3904765
I3904779
tp1686
a(VECK125158238
p1687
VRcdA
p1688
I1669278
I1669287
tp1689
a(VECK120048828
p1690
VMurR-MurR
p1691
I2543736
I2543750
tp1692
a(VECK125158232
p1693
VRob-MarA-SoxS
p1694
I793924
I793943
tp1695
a(VECK125158230
p1696
VRcdA
p1697
I1214947
I1214956
tp1698
a(VECK125158236
p1699
VRcdA
p1700
I1669288
I1669297
tp1701
a(VECK125135157
p1702
VHipAB-HipB
p1703
I1590582
I1590601
tp1704
a(VECK125135155
p1705
VHipAB-HipB
p1706
I1590554
I1590573
tp1707
a(VECK125135153
p1708
VHipB-HipAB
p1709
I1590515
I1590534
tp1710
a(VECK120016091
p1711
VNarL-NarL
p1712
I1297548
I1297563
tp1713
a(VECK125135159
p1714
VCsgD
p1715
I3299302
I3299315
tp1716
a(VECK120016255
p1717
VPhoP
p1718
I4126631
I4126647
tp1719
a(VECK125141268
p1720
VDcuR
p1721
I651289
I651305
tp1722
a(VECK120016251
p1723
VPhoP
p1724
I3488225
I3488241
tp1725
a(VECK120016253
p1726
VPhoP
p1727
I2459027
I2459044
tp1728
a(VECK125141262
p1729
VFNR-FNR
p1730
I651245
I651258
tp1731
a(VECK125141260
p1732
VCRP-CRP
p1733
I651241
I651262
tp1734
a(VECK125141266
p1735
VDcuR
p1736
I651350
I651366
tp1737
a(VECK125145792
p1738
VAscG
p1739
I494381
I494394
tp1740
a(VECK125134953
p1741
VPhoP
p1742
I3571706
I3571722
tp1743
a(VECK120016896
p1744
VCpxR
p1745
I460871
I460885
tp1746
a(VECK120016894
p1747
VCpxR
p1748
I460919
I460933
tp1749
a(VECK125145790
p1750
VAscG
p1751
I855055
I855068
tp1752
a(VECK120016892
p1753
VCpxR
p1754
I460939
I460954
tp1755
a(VECK120033940
p1756
VFur
p1757
I4516300
I4516318
tp1758
a(VECK120013116
p1759
VCra
p1760
I4213250
I4213267
tp1761
a(VECK120013220
p1762
VPhoB
p1763
I3909614
I3909632
tp1764
a(VECK120013622
p1765
VFis
p1766
I3108305
I3108319
tp1767
a(VECK120013331
p1768
VCRP
p1769
I2459059
I2459080
tp1770
a(VECK120013620
p1771
VFis
p1772
I2997146
I2997160
tp1773
a(VECK120013333
p1774
VCRP
p1775
I42068
I42089
tp1776
a(VECK120013627
p1777
VFis
p1778
I3980305
I3980319
tp1779
a(VECK120013336
p1780
VIHF
p1781
I4609165
I4609177
tp1782
a(VECK120013625
p1783
VFis
p1784
I3706786
I3706800
tp1785
a(VECK120013629
p1786
VFis
p1787
I4173326
I4173340
tp1788
a(VECK120033892
p1789
VPdhR
p1790
I480188
I480204
tp1791
a(VECK120031751
p1792
VFNR
p1793
I3667319
I3667332
tp1794
a(VECK120017076
p1795
VFadR
p1796
I2458518
I2458534
tp1797
a(VECK120013754
p1798
VIHF
p1799
I4540370
I4540382
tp1800
a(VECK120017074
p1801
VPdhR
p1802
I2714521
I2714537
tp1803
a(VECK120016078
p1804
VNarL-NarL
p1805
I953943
I953958
tp1806
a(VECK120017071
p1807
VTorR
p1808
I3665553
I3665562
tp1809
a(VECK120017070
p1810
VTorR
p1811
I3654837
I3654846
tp1812
a(VECK120016074
p1813
VNarL-NarL
p1814
I954054
I954069
tp1815
a(VECK120016076
p1816
VNarL-NarL
p1817
I954056
I954071
tp1818
a(VECK120016070
p1819
VNarL-NarL
p1820
I953978
I953993
tp1821
a(VECK120016072
p1822
VNarL-NarL
p1823
I953994
I954009
tp1824
a(VECK120013249
p1825
VSoxS
p1826
I4098728
I4098747
tp1827
a(VECK120051336
p1828
VNarL
p1829
I1398374
I1398389
tp1830
a(VECK120013244
p1831
VSoxR-SoxR
p1832
I4275463
I4275480
tp1833
a(VECK120013934
p1834
VIHF
p1835
I1793760
I1793772
tp1836
a(VECK120013247
p1837
VSoxS
p1838
I2248781
I2248800
tp1839
a(VECK120013930
p1840
VLrp-Lrp-Lrp
p1841
I1236819
I1236833
tp1842
a(VECK125158277
p1843
VDnaA
p1844
I3881962
I3881970
tp1845
a(VECK120011267
p1846
VNac
p1847
I2060070
I2060084
tp1848
a(VECK120011261
p1849
VIHF
p1850
I962662
I962674
tp1851
a(VECK120011263
p1852
VIHF
p1853
I962646
I962658
tp1854
a(VECK120013803
p1855
VArcA
p1856
I1486202
I1486216
tp1857
a(VECK120013801
p1858
VArcA
p1859
I1486050
I1486064
tp1860
a(VECK120011668
p1861
VNtrC
p1862
I1830335
I1830351
tp1863
a(VECK120034894
p1864
VCRP-CRP-CRP
p1865
I365546
I365567
tp1866
a(VECK120011660
p1867
VFis
p1868
I3217352
I3217366
tp1869
a(VECK120011662
p1870
VIHF
p1871
I3217218
I3217230
tp1872
a(VECK120011664
p1873
VNtrC
p1874
I1830293
I1830309
tp1875
a(VECK120011666
p1876
VNtrC
p1877
I1830313
I1830329
tp1878
a(VECK120012907
p1879
VOxyR-OxyR
p1880
I638092
I638108
tp1881
a(VECK120017109
p1882
VMarA-Rob
p1883
I2311056
I2311075
tp1884
a(VECK120017108
p1885
VCpxR
p1886
I3037241
I3037254
tp1887
a(VECK120017107
p1888
VCpxR
p1889
I3865305
I3865321
tp1890
a(VECK120017106
p1891
VCpxR
p1892
I200347
I200361
tp1893
a(VECK120030710
p1894
VFur
p1895
I624069
I624087
tp1896
a(VECK120012273
p1897
VIHF
p1898
I2830471
I2830483
tp1899
a(VECK120011402
p1900
VPspF-PspF
p1901
I1365955
I1365971
tp1902
a(VECK120014099
p1903
VIHF
p1904
I1165192
I1165204
tp1905
a(VECK120011408
p1906
VTreR
p1907
I4464273
I4464289
tp1908
a(VECK120012271
p1909
VIHF
p1910
I2830407
I2830419
tp1911
a(VECK120014107
p1912
VMlc-Mlc
p1913
I1666601
I1666623
tp1914
a(VECK120014105
p1915
VZraR-ZraR
p1916
I4199834
I4199850
tp1917
a(VECK120033068
p1918
VRstA
p1919
I1669281
I1669297
tp1920
a(VECK120033064
p1921
VNrdR
p1922
I4460845
I4460860
tp1923
a(VECK120033062
p1924
VNrdR
p1925
I4460876
I4460891
tp1926
a(VECK120033060
p1927
VNrdR
p1928
I2798625
I2798640
tp1929
a(VECK120012909
p1930
VCRP
p1931
I3098854
I3098875
tp1932
a(VECK120029476
p1933
VIHF
p1934
I3599156
I3599168
tp1935
a(VECK120014039
p1936
VNarL
p1937
I4285636
I4285651
tp1938
a(VECK120014036
p1939
VNtrC
p1940
I471685
I471701
tp1941
a(VECK120029479
p1942
VIHF
p1943
I3352440
I3352452
tp1944
a(VECK120014032
p1945
VCRP
p1946
I1229740
I1229761
tp1947
a(VECK120014030
p1948
VH-NS
p1949
I1229738
I1229752
tp1950
a(VECK120029876
p1951
VCpxR
p1952
I1080469
I1080482
tp1953
a(VECK120012563
p1954
VNanR
p1955
I3371642
I3371647
tp1956
a(VECK120029874
p1957
VCpxR
p1958
I1169686
I1169701
tp1959
a(VECK120012561
p1960
VNanR
p1961
I3371651
I3371656
tp1962
a(VECK120011318
p1963
VCRP
p1964
I2866192
I2866213
tp1965
a(VECK120012567
p1966
VCRP
p1967
I628978
I628999
tp1968
a(VECK120029870
p1969
VCpxR
p1970
I480061
I480075
tp1971
a(VECK120012565
p1972
VNanR
p1973
I3371634
I3371639
tp1974
a(VECK120015610
p1975
VFNR-FNR
p1976
I2350598
I2350611
tp1977
a(VECK120011316
p1978
VCRP
p1979
I2866074
I2866095
tp1980
a(VECK120012569
p1981
VNanR-NanR
p1982
I4537951
I4537956
tp1983
a(VECK120011310
p1984
VCRP
p1985
I4095631
I4095652
tp1986
a(VECK120029878
p1987
VCpxR
p1988
I1927793
I1927807
tp1989
a(VECK120015678
p1990
VCRP
p1991
I1570149
I1570170
tp1992
a(VECK120012967
p1993
VIlvY-IlvY
p1994
I3955866
I3955882
tp1995
a(VECK120012963
p1996
VTyrR-TyrR
p1997
I1987596
I1987613
tp1998
a(VECK120012961
p1999
VTyrR
p2000
I1987619
I1987636
tp2001
a(VECK120012417
p2002
VPhoB-PhoB
p2003
I3590444
I3590462
tp2004
a(VECK120012411
p2005
VLrp
p2006
I956677
I956691
tp2007
a(VECK120015725
p2008
VNarL-NarP
p2009
I3491936
I3491951
tp2010
a(VECK120015727
p2011
VNarL-NarP
p2012
I4285616
I4285631
tp2013
a(VECK120015721
p2014
VMetJ-MetJ-MetJ
p2015
I4011015
I4011030
tp2016
a(VECK120023403
p2017
VH-NS
p2018
I4358251
I4358265
tp2019
a(VECK120012982
p2020
VAda
p2021
I4412205
I4412228
tp2022
a(VECK120011884
p2023
VNarL
p2024
I865786
I865801
tp2025
a(VECK120011886
p2026
VFNR
p2027
I1262868
I1262881
tp2028
a(VECK120011880
p2029
VArcA
p2030
I865747
I865761
tp2031
a(VECK120011882
p2032
VNarL
p2033
I865718
I865733
tp2034
a(VECK120034474
p2035
VH-NS-H-NS
p2036
I84085
I84099
tp2037
a(VECK120048903
p2038
VGadW-GadX
p2039
I3654931
I3654950
tp2040
a(VECK120012185
p2041
VTrpR
p2042
I3303885
I3303902
tp2043
a(VECK120012187
p2044
VTrpR
p2045
I405543
I405560
tp2046
a(VECK120048907
p2047
VEvgA
p2048
I2166437
I2166454
tp2049
a(VECK120012181
p2050
VTrpR
p2051
I1321143
I1321160
tp2052
a(VECK120012183
p2053
VTrpR
p2054
I1786304
I1786321
tp2055
a(VECK120048909
p2056
VMurR-MurR
p2057
I2543704
I2543718
tp2058
a(VECK120012189
p2059
VUlaR
p2060
I4417896
I4417915
tp2061
a(VECK120012349
p2062
VMelR-MelR-MelR
p2063
I4339839
I4339856
tp2064
a(VECK120012343
p2065
VCRP
p2066
I4095612
I4095633
tp2067
a(VECK120012341
p2068
VArcA
p2069
I4098737
I4098751
tp2070
a(VECK120012345
p2071
VCRP
p2072
I4095607
I4095628
tp2073
a(VECK120013411
p2074
VFadR
p2075
I3638002
I3638018
tp2076
a(VECK120034509
p2077
VH-NS-H-NS
p2078
I4601214
I4601223
tp2079
a(VECK120035052
p2080
VDcuR
p2081
I4347169
I4347185
tp2082
a(VECK120034507
p2083
VH-NS-H-NS
p2084
I4601227
I4601236
tp2085
a(VECK120029890
p2086
VIHF
p2087
I2890104
I2890116
tp2088
a(VECK120012749
p2089
VGlpR-GlpR
p2090
I2350545
I2350564
tp2091
a(VECK120012746
p2092
VGlpR-GlpR
p2093
I2350577
I2350596
tp2094
a(VECK120012743
p2095
VGlpR-GlpR
p2096
I2350596
I2350615
tp2097
a(VECK120012740
p2098
VGlpR-GlpR
p2099
I2350636
I2350655
tp2100
a(VECK125158224
p2101
VRcdA
p2102
I1020133
I1020142
tp2103
a(VECK125158226
p2104
VRcdA
p2105
I1020119
I1020128
tp2106
a(VECK120048839
p2107
VRcsB
p2108
I1768347
I1768360
tp2109
a(VECK120048834
p2110
VGadX-GadX-GadW-GadW
p2111
I3662848
I3662867
tp2112
a(VECK125158228
p2113
VRcdA
p2114
I1214936
I1214945
tp2115
a(VECK120013303
p2116
VArcA
p2117
I953960
I953974
tp2118
a(VECK120016080
p2119
VNarL
p2120
I4380414
I4380429
tp2121
a(VECK120016082
p2122
VNarL
p2123
I4380439
I4380454
tp2124
a(VECK125135145
p2125
VYefM-YoeB-YefM
p2126
I2087749
I2087762
tp2127
a(VECK120016084
p2128
VNarL
p2129
I4380453
I4380468
tp2130
a(VECK120016086
p2131
VNarL
p2132
I1277044
I1277059
tp2133
a(VECK120016247
p2134
VPhoP
p2135
I3372834
I3372853
tp2136
a(VECK120016245
p2137
VPhoP
p2138
I3735324
I3735340
tp2139
a(VECK120016243
p2140
VPhoP
p2141
I484883
I484899
tp2142
a(VECK120016241
p2143
VCpxR
p2144
I1102660
I1102674
tp2145
a(VECK125141251
p2146
VNarL-NarL
p2147
I651223
I651229
tp2148
a(VECK120033992
p2149
VFis
p2150
I2714655
I2714669
tp2151
a(VECK120033990
p2152
VFis
p2153
I2714697
I2714711
tp2154
a(VECK120033996
p2155
VFis
p2156
I3098874
I3098888
tp2157
a(VECK120016249
p2158
VPhoP
p2159
I4206121
I4206137
tp2160
a(VECK125134914
p2161
VIHF
p2162
I2689408
I2689420
tp2163
a(VECK120035029
p2164
VCRP
p2165
I2231943
I2231964
tp2166
a(VECK120016885
p2167
VCpxR
p2168
I180775
I180789
tp2169
a(VECK120016887
p2170
VCRP-CRP
p2171
I1697225
I1697246
tp2172
a(VECK125108979
p2173
VOxyR
p2174
I3667340
I3667356
tp2175
a(VECK125108975
p2176
VOxyR
p2177
I2510824
I2510840
tp2178
a(VECK125108977
p2179
VOxyR
p2180
I2716654
I2716670
tp2181
a(VECK125108971
p2182
VOxyR
p2183
I848231
I848247
tp2184
a(VECK125108973
p2185
VOxyR
p2186
I2069334
I2069350
tp2187
a(VECK120013108
p2188
VFNR
p2189
I4345479
I4345492
tp2190
a(VECK120013101
p2191
VFis
p2192
I3754580
I3754594
tp2193
a(VECK120013106
p2194
VFNR
p2195
I1165158
I1165171
tp2196
a(VECK120013104
p2197
VFNR
p2198
I1545347
I1545360
tp2199
a(VECK125095350
p2200
VNsrR
p2201
I3788282
I3788292
tp2202
a(VECK125095352
p2203
VNsrR
p2204
I2475750
I2475760
tp2205
a(VECK125095354
p2206
VNsrR
p2207
I931597
I931607
tp2208
a(VECK125095357
p2209
VNsrR-NsrR
p2210
I2000045
I2000055
tp2211
a(VECK120013323
p2212
VOmpR
p2213
I2459068
I2459087
tp2214
a(VECK120013327
p2215
VOmpR
p2216
I2459286
I2459305
tp2217
a(VECK120013325
p2218
VOmpR
p2219
I2459157
I2459176
tp2220
a(VECK120013329
p2221
VOmpR
p2222
I2459336
I2459355
tp2223
a(VECK120031749
p2224
VOxyR
p2225
I3667362
I3667378
tp2226
a(VECK125110197
p2227
VFur
p2228
I1298964
I1298982
tp2229
a(VECK120017042
p2230
VNarP-NarL
p2231
I913160
I913175
tp2232
a(VECK120013740
p2233
VMelR-MelR
p2234
I4339801
I4339818
tp2235
a(VECK120013742
p2236
VMelR-MelR
p2237
I4339781
I4339798
tp2238
a(VECK120013033
p2239
VCRP-CRP
p2240
I754087
I754108
tp2241
a(VECK120013744
p2242
VCysB
p2243
I384206
I384247
tp2244
a(VECK120017044
p2245
VNarP-NarL
p2246
I2830384
I2830399
tp2247
a(VECK120016068
p2248
VNarL-NarL
p2249
I953934
I953949
tp2250
a(VECK120016066
p2251
VNarL-NarL
p2252
I953860
I953875
tp2253
a(VECK120016064
p2254
VNarL-NarL
p2255
I953728
I953743
tp2256
a(VECK120013038
p2257
VCRP
p2258
I1984294
I1984315
tp2259
a(VECK120013257
p2260
VTdcA
p2261
I3265285
I3265299
tp2262
a(VECK120013922
p2263
VLrp-Lrp-Lrp
p2264
I1236750
I1236764
tp2265
a(VECK120013253
p2266
VSoxS
p2267
I4112569
I4112588
tp2268
a(VECK120013251
p2269
VSoxS
p2270
I1684705
I1684724
tp2271
a(VECK120013926
p2272
VLrp-Lrp-Lrp
p2273
I1236797
I1236811
tp2274
a(VECK125158258
p2275
VPhoB
p2276
I347710
I347728
tp2277
a(VECK120013638
p2278
VArcA
p2279
I127692
I127706
tp2280
a(VECK120013635
p2281
VFis
p2282
I4604519
I4604533
tp2283
a(VECK120013631
p2284
VFis
p2285
I4360718
I4360732
tp2286
a(VECK120013633
p2287
VFis
p2288
I4494327
I4494341
tp2289
a(VECK120011276
p2290
VNac
p2291
I1840300
I1840314
tp2292
a(VECK120011274
p2293
VNac
p2294
I1840349
I1840363
tp2295
a(VECK120011272
p2296
VNtrC
p2297
I2060146
I2060162
tp2298
a(VECK120051375
p2299
VNarL
p2300
I1655996
I1656011
tp2301
a(VECK120011278
p2302
VNac
p2303
I1840244
I1840258
tp2304
a(VECK120013815
p2305
VArcA
p2306
I328584
I328598
tp2307
a(VECK120013817
p2308
VArcA-ArcA
p2309
I328652
I328666
tp2310
a(VECK120020681
p2311
VFNR
p2312
I4360136
I4360149
tp2313
a(VECK120013811
p2314
VCaiF-CaiF
p2315
I42200
I42215
tp2316
a(VECK120020684
p2317
VFNR
p2318
I1486197
I1486210
tp2319
a(VECK120020688
p2320
VFNR
p2321
I3665613
I3665626
tp2322
a(VECK125108740
p2323
VPhoP
p2324
I1620569
I1620585
tp2325
a(VECK120015998
p2326
VCRP
p2327
I4328297
I4328318
tp2328
a(VECK120011679
p2329
VArgR
p2330
I1830181
I1830198
tp2331
a(VECK120051436
p2332
VOxyR
p2333
I637832
I637848
tp2334
a(VECK120011673
p2335
VArgR
p2336
I1830107
I1830124
tp2337
a(VECK120011677
p2338
VArgR
p2339
I1830159
I1830176
tp2340
a(VECK120011675
p2341
VArgR
p2342
I1830138
I1830155
tp2343
a(VECK125134896
p2344
VExuR
p2345
I1608882
I1608899
tp2346
a(VECK120017136
p2347
VIHF
p2348
I3126199
I3126211
tp2349
a(VECK120017137
p2350
VIscR
p2351
I2660237
I2660261
tp2352
a(VECK120014115
p2353
VTorR-TorR
p2354
I1057196
I1057205
tp2355
a(VECK120011410
p2356
VTreR
p2357
I4464306
I4464322
tp2358
a(VECK120011416
p2359
VSoxS-MarA
p2360
I910350
I910369
tp2361
a(VECK120014113
p2362
VMlc
p2363
I3551046
I3551068
tp2364
a(VECK120014118
p2365
VTorR-TorR
p2366
I1057206
I1057215
tp2367
a(VECK120015191
p2368
VIdnR
p2369
I3575646
I3575661
tp2370
a(VECK125140728
p2371
VCra
p2372
I1102755
I1102772
tp2373
a(VECK120011989
p2374
VArcA
p2375
I1165275
I1165289
tp2376
a(VECK120034082
p2377
VFis
p2378
I3729008
I3729026
tp2379
a(VECK120033079
p2380
VCRP
p2381
I1257909
I1257930
tp2382
a(VECK120012498
p2383
VH-NS
p2384
I4164333
I4164347
tp2385
a(VECK120033070
p2386
VRstA-RstA
p2387
I1102610
I1102626
tp2388
a(VECK120033073
p2389
VRstA
p2390
I986399
I986415
tp2391
a(VECK120033075
p2392
VRstA
p2393
I1278746
I1278762
tp2394
a(VECK120033077
p2395
VCRP
p2396
I3217181
I3217202
tp2397
a(VECK120011985
p2398
VArcA
p2399
I1165264
I1165278
tp2400
a(VECK120014028
p2401
VSlyA
p2402
I1229728
I1229739
tp2403
a(VECK120014020
p2404
VFis
p2405
I1165136
I1165150
tp2406
a(VECK120014022
p2407
VFis
p2408
I1165258
I1165272
tp2409
a(VECK120014024
p2410
VFNR
p2411
I1277069
I1277082
tp2412
a(VECK120013663
p2413
VIHF
p2414
I2253079
I2253091
tp2415
a(VECK120011308
p2416
VPhoB
p2417
I3057716
I3057734
tp2418
a(VECK120011304
p2419
VOxyR
p2420
I710106
I710122
tp2421
a(VECK120011300
p2422
VSoxS
p2423
I710796
I710815
tp2424
a(VECK125160695
p2425
VFis-Fis
p2426
I1063150
I1063164
tp2427
a(VECK120012973
p2428
VCRP
p2429
I3550965
I3550986
tp2430
a(VECK125135087
p2431
VCRP
p2432
I367790
I367811
tp2433
a(VECK120012975
p2434
VFadR
p2435
I1015751
I1015767
tp2436
a(VECK120012977
p2437
VTyrR
p2438
I3303950
I3303967
tp2439
a(VECK120034493
p2440
VLrp
p2441
I3654966
I3654980
tp2442
a(VECK120012979
p2443
VTrpR
p2444
I3303893
I3303910
tp2445
a(VECK125108646
p2446
VLexA
p2447
I251958
I251977
tp2448
a(VECK125141246
p2449
VNarL
p2450
I651416
I651422
tp2451
a(VECK120012400
p2452
VFur
p2453
I1160871
I1160889
tp2454
a(VECK120012403
p2455
VCRP
p2456
I2932050
I2932071
tp2457
a(VECK120034491
p2458
VLrp
p2459
I3654923
I3654937
tp2460
a(VECK120012405
p2461
VCRP
p2462
I4122586
I4122607
tp2463
a(VECK120015979
p2464
VNarL
p2465
I1277057
I1277072
tp2466
a(VECK120015751
p2467
VFNR
p2468
I4366489
I4366502
tp2469
a(VECK120015977
p2470
VNarL
p2471
I1276993
I1277008
tp2472
a(VECK120015971
p2473
VNarL
p2474
I1276933
I1276948
tp2475
a(VECK120015973
p2476
VNarL
p2477
I1276970
I1276985
tp2478
a(VECK120012996
p2479
VArcA
p2480
I754147
I754161
tp2481
a(VECK120012994
p2482
VArcA
p2483
I451070
I451084
tp2484
a(VECK120012992
p2485
VAraC
p2486
I411809
I411825
tp2487
a(VECK120012990
p2488
VAraC
p2489
I1984324
I1984340
tp2490
a(VECK120011892
p2491
VFadR
p2492
I1887929
I1887945
tp2493
a(VECK120011890
p2494
VFadR
p2495
I1887843
I1887859
tp2496
a(VECK120048751
p2497
VYefM-YoeB-YefM
p2498
I2087761
I2087774
tp2499
a(VECK120012579
p2500
VNagC-NagC
p2501
I4538217
I4538239
tp2502
a(VECK120012575
p2503
VCRP
p2504
I4538002
I4538023
tp2505
a(VECK120012577
p2506
VNagC-NagC
p2507
I4538005
I4538027
tp2508
a(VECK120012571
p2509
VNanR-NanR
p2510
I4537960
I4537965
tp2511
a(VECK120012573
p2512
VNanR-NanR
p2513
I4537943
I4537948
tp2514
a(VECK120012197
p2515
VCRP-CRP
p2516
I4492489
I4492510
tp2517
a(VECK120012194
p2518
VCRP
p2519
I4417879
I4417900
tp2520
a(VECK120012191
p2521
VUlaR
p2522
I4417689
I4417708
tp2523
a(VECK120013511
p2524
VNtrC
p2525
I847397
I847413
tp2526
a(VECK120012356
p2527
VCRP-CRP
p2528
I4339704
I4339725
tp2529
a(VECK120013513
p2530
VMetR
p2531
I2683710
I2683724
tp2532
a(VECK120012359
p2533
VCRP-CRP
p2534
I4339818
I4339839
tp2535
a(VECK120035020
p2536
VLrp
p2537
I931574
I931590
tp2538
a(VECK120035022
p2539
VLrp
p2540
I3352416
I3352430
tp2541
a(VECK120029888
p2542
VCysB
p2543
I1439799
I1439840
tp2544
a(VECK120029886
p2545
VCpxR
p2546
I3245516
I3245530
tp2547
a(VECK120029884
p2548
VCpxR
p2549
I1984755
I1984769
tp2550
a(VECK120029882
p2551
VCpxR
p2552
I784769
I784783
tp2553
a(VECK120029880
p2554
VCpxR
p2555
I1621936
I1621952
tp2556
a(VECK125147056
p2557
VBasR
p2558
I4538639
I4538658
tp2559
a(VECK120012754
p2560
VCRP
p2561
I3851099
I3851120
tp2562
a(VECK120012756
p2563
VOxyR
p2564
I4131783
I4131799
tp2565
a(VECK125158250
p2566
VPhoB-PhoB
p2567
I594733
I594751
tp2568
a(VECK120048808
p2569
VCRP
p2570
I2079358
I2079379
tp2571
a(VECK125158256
p2572
VPhoB
p2573
I1445341
I1445359
tp2574
a(VECK120048802
p2575
VLexA
p2576
I1928789
I1928808
tp2577
a(VECK120048800
p2578
VLexA
p2579
I3815720
I3815739
tp2580
a(VECK120048806
p2581
VLexA
p2582
I2079301
I2079320
tp2583
a(VECK120048804
p2584
VLexA
p2585
I1120730
I1120749
tp2586
a(VECK120029552
p2587
VFis-Fis
p2588
I1328840
I1328854
tp2589
a(VECK120033984
p2590
VFis
p2591
I4244427
I4244445
tp2592
a(VECK125141242
p2593
VCRP
p2594
I2717901
I2717922
tp2595
a(VECK125141244
p2596
VCRP
p2597
I2717861
I2717882
tp2598
a(VECK120033982
p2599
VFis
p2600
I4244594
I4244612
tp2601
a(VECK125141248
p2602
VArcA-ArcA
p2603
I651107
I651116
tp2604
a(VECK125108981
p2605
VOxyR
p2606
I4131761
I4131777
tp2607
a(VECK120048938
p2608
VRelB-RelE-RelB
p2609
I1643909
I1643920
tp2610
a(VECK120048936
p2611
VRelB-RelE-RelB
p2612
I1643921
I1643932
tp2613
a(VECK120048932
p2614
VCRP
p2615
I3242852
I3242873
tp2616
a(VECK120048930
p2617
VExuR-ExuR
p2618
I3242872
I3242889
tp2619
a(VECK125134936
p2620
VZraR-ZraR
p2621
I4199805
I4199821
tp2622
a(VECK120016873
p2623
VCbl
p2624
I384318
I384357
tp2625
a(VECK125108969
p2626
VOxyR
p2627
I710084
I710100
tp2628
a(VECK125108967
p2629
VOxyR
p2630
I4603814
I4603830
tp2631
a(VECK125108965
p2632
VOxyR
p2633
I4603708
I4603724
tp2634
a(VECK120011374
p2635
VPhoB
p2636
I1669312
I1669330
tp2637
a(VECK120016186
p2638
VCpxR-CpxR
p2639
I4103769
I4103783
tp2640
a(VECK120013136
p2641
VGcvA
p2642
I3048831
I3048845
tp2643
a(VECK120013134
p2644
VGcvA
p2645
I3049045
I3049059
tp2646
a(VECK125108667
p2647
VH-NS
p2648
I1986670
I1986701
tp2649
a(VECK120016470
p2650
VCpxR
p2651
I2311196
I2311210
tp2652
a(VECK125108660
p2653
VH-NS
p2654
I1986570
I1986579
tp2655
a(VECK125140759
p2656
VMntR
p2657
I1903329
I1903350
tp2658
a(VECK120013139
p2659
VNtrC
p2660
I847384
I847400
tp2661
a(VECK125108662
p2662
VH-NS
p2663
I1986595
I1986614
tp2664
a(VECK120013489
p2665
VCRP-CRP
p2666
I3490502
I3490523
tp2667
a(VECK120026323
p2668
VIHF
p2669
I1590617
I1590629
tp2670
a(VECK120013485
p2671
VCytR-CytR-CytR
p2672
I3490474
I3490489
tp2673
a(VECK120013483
p2674
VCRP
p2675
I4464211
I4464232
tp2676
a(VECK120013480
p2677
VArcA
p2678
I328640
I328654
tp2679
a(VECK120017054
p2680
VFur
p2681
I2510779
I2510796
tp2682
a(VECK120017053
p2683
VMntR
p2684
I2510741
I2510762
tp2685
a(VECK125108962
p2686
VOxyR
p2687
I637855
I637871
tp2688
a(VECK120013003
p2689
VArcA
p2690
I754030
I754044
tp2691
a(VECK120016058
p2692
VFur
p2693
I754138
I754156
tp2694
a(VECK120013007
p2695
VArcA
p2696
I3382302
I3382316
tp2697
a(VECK120013005
p2698
VArcA
p2699
I1194233
I1194247
tp2700
a(VECK120016052
p2701
VCRP
p2702
I121961
I121982
tp2703
a(VECK120016050
p2704
VCRP
p2705
I121913
I121934
tp2706
a(VECK120016054
p2707
VCRP
p2708
I121973
I121994
tp2709
a(VECK120013269
p2710
VLrp
p2711
I4352879
I4352893
tp2712
a(VECK120013263
p2713
VUhpA
p2714
I3845253
I3845272
tp2715
a(VECK120013261
p2716
VTdcR
p2717
I3265304
I3265315
tp2718
a(VECK120013266
p2719
VIHF-IHF
p2720
I2848515
I2848527
tp2721
a(VECK125140757
p2722
VMntR
p2723
I1903289
I1903310
tp2724
a(VECK120013793
p2725
VXylR
p2726
I3729043
I3729060
tp2727
a(VECK120013791
p2728
VXylR
p2729
I3728884
I3728901
tp2730
a(VECK120013797
p2731
VCRP
p2732
I1486144
I1486165
tp2733
a(VECK120013795
p2734
VXylR
p2735
I3729022
I3729039
tp2736
a(VECK120013648
p2737
VCRP
p2738
I2229788
I2229809
tp2739
a(VECK120013318
p2740
VNarL-NarL
p2741
I953961
I953976
tp2742
a(VECK120013316
p2743
VNarL-NarL
p2744
I953745
I953760
tp2745
a(VECK125110255
p2746
VLeuO
p2747
I2882441
I2882461
tp2748
a(VECK120013314
p2749
VNarL-NarL
p2750
I953809
I953824
tp2751
a(VECK120013643
p2752
VCRP
p2753
I754603
I754624
tp2754
a(VECK120013312
p2755
VIHF
p2756
I953822
I953834
tp2757
a(VECK120013645
p2758
VCra
p2759
I1753500
I1753517
tp2760
a(VECK120013310
p2761
VFNR
p2762
I954089
I954102
tp2763
a(VECK125110253
p2764
VLeuO
p2765
I2882285
I2882305
tp2766
a(VECK120011242
p2767
VMlc
p2768
I1156972
I1156994
tp2769
a(VECK120011523
p2770
VFur
p2771
I840860
I840878
tp2772
a(VECK120011246
p2773
VFNR
p2774
I2714632
I2714645
tp2775
a(VECK120011795
p2776
VCRP
p2777
I3740748
I3740769
tp2778
a(VECK120011244
p2779
VMlc
p2780
I1156803
I1156825
tp2781
a(VECK120011798
p2782
VCRP-CRP
p2783
I1236741
I1236762
tp2784
a(VECK120020694
p2785
VIscR
p2786
I2660262
I2660286
tp2787
a(VECK120011248
p2788
VFNR
p2789
I2714579
I2714592
tp2790
a(VECK120020696
p2791
VIscR
p2792
I2301699
I2301723
tp2793
a(VECK120020690
p2794
VFNR
p2795
I3706049
I3706062
tp2796
a(VECK120020692
p2797
VIscR
p2798
I3543609
I3543633
tp2799
a(VECK120013860
p2800
VArcA
p2801
I770422
I770436
tp2802
a(VECK120013862
p2803
VNarL
p2804
I1545311
I1545326
tp2805
a(VECK120013864
p2806
VFNR-FNR
p2807
I4638607
I4638620
tp2808
a(VECK120013867
p2809
VNarL-NarP
p2810
I1545279
I1545294
tp2811
a(VECK120013869
p2812
VFNR
p2813
I1545292
I1545305
tp2814
a(VECK120011646
p2815
VSoxS
p2816
I2311058
I2311077
tp2817
a(VECK125141234
p2818
VMetR-MetR-MetR
p2819
I4010859
I4010873
tp2820
a(VECK120011644
p2821
VSoxS
p2822
I2310977
I2310996
tp2823
a(VECK120011642
p2824
VLrp
p2825
I2311221
I2311232
tp2826
a(VECK120014063
p2827
VNarL
p2828
I4346888
I4346903
tp2829
a(VECK120011648
p2830
VLrp-Lrp-Lrp-Lrp
p2831
I2311185
I2311199
tp2832
a(VECK120017120
p2833
VNtrC
p2834
I2426053
I2426069
tp2835
a(VECK120014161
p2836
VCra
p2837
I4105453
I4105470
tp2838
a(VECK120014163
p2839
VCRP
p2840
I3931272
I3931293
tp2841
a(VECK120014165
p2842
VFNR
p2843
I4098738
I4098751
tp2844
a(VECK120014167
p2845
VArcA
p2846
I4098754
I4098768
tp2847
a(VECK120015185
p2848
VCueR
p2849
I510651
I510669
tp2850
a(VECK120015187
p2851
VCueR
p2852
I137011
I137029
tp2853
a(VECK120034074
p2854
VFis
p2855
I4609238
I4609256
tp2856
a(VECK120034076
p2857
VFis
p2858
I952797
I952811
tp2859
a(VECK120034070
p2860
VFis
p2861
I1277103
I1277121
tp2862
a(VECK120034072
p2863
VFis
p2864
I4609157
I4609175
tp2865
a(VECK120034078
p2866
VFis
p2867
I1003944
I1003958
tp2868
a(VECK120033085
p2869
VFur
p2870
I2683815
I2683833
tp2871
a(VECK120033081
p2872
VCRP
p2873
I4348635
I4348656
tp2874
a(VECK120033083
p2875
VAtoC
p2876
I2321305
I2321324
tp2877
a(VECK120020745
p2878
VModE
p2879
I4615254
I4615277
tp2880
a(VECK120020742
p2881
VLrp
p2882
I4164331
I4164342
tp2883
a(VECK120020741
p2884
VLrp
p2885
I4033203
I4033214
tp2886
a(VECK120029639
p2887
VCpxR
p2888
I1823755
I1823769
tp2889
a(VECK120020649
p2890
VModE
p2891
I816068
I816091
tp2892
a(VECK120011336
p2893
VFlhDC
p2894
I2017563
I2017579
tp2895
a(VECK120013097
p2896
VFhlA
p2897
I2848575
I2848587
tp2898
a(VECK120011334
p2899
VFlhDC
p2900
I1999873
I1999889
tp2901
a(VECK125109819
p2902
VCaiF-CaiF
p2903
I42181
I42196
tp2904
a(VECK120015969
p2905
VLexA
p2906
I4255050
I4255069
tp2907
a(VECK120048790
p2908
VFis
p2909
I2632094
I2632108
tp2910
a(VECK120015742
p2911
VAraC-AraC
p2912
I70110
I70126
tp2913
a(VECK125134681
p2914
VKdgR
p2915
I1932803
I1932823
tp2916
a(VECK120011423
p2917
VMarA
p2918
I1010837
I1010856
tp2919
a(VECK120015745
p2920
VCRP-CRP
p2921
I2350554
I2350575
tp2922
a(VECK120011421
p2923
VSoxS-Rob-MarA
p2924
I2347553
I2347572
tp2925
a(VECK125108648
p2926
VCRP-CRP
p2927
I1599331
I1599352
tp2928
a(VECK120012213
p2929
VGntR-GntR-GntR
p2930
I3544543
I3544562
tp2931
a(VECK125147047
p2932
VYehT
p2933
I4589438
I4589466
tp2934
a(VECK120015562
p2935
VCRP
p2936
I1694255
I1694276
tp2937
a(VECK120015560
p2938
VUxuR
p2939
I1694140
I1694157
tp2940
a(VECK120015564
p2941
VNarP-NarL
p2942
I2830375
I2830390
tp2943
a(VECK120014061
p2944
VCRP
p2945
I4346883
I4346904
tp2946
a(VECK120012698
p2947
VNarL
p2948
I4380422
I4380437
tp2949
a(VECK120048744
p2950
VGalR-GalS
p2951
I3086162
I3086177
tp2952
a(VECK120048747
p2953
VNagC
p2954
I3086267
I3086289
tp2955
a(VECK120012692
p2956
VFis
p2957
I3408219
I3408233
tp2958
a(VECK120012694
p2959
VFNR
p2960
I1397570
I1397583
tp2961
a(VECK120012696
p2962
VFNR
p2963
I4380474
I4380487
tp2964
a(VECK120012508
p2965
VCRP-CRP
p2966
I3728901
I3728922
tp2967
a(VECK125109820
p2968
VCaiF-CaiF
p2969
I42238
I42253
tp2970
a(VECK125140765
p2971
VMntR
p2972
I852296
I852317
tp2973
a(VECK120012500
p2974
VH-NS
p2975
I4164357
I4164371
tp2976
a(VECK120012502
p2977
VCpxR
p2978
I2751511
I2751525
tp2979
a(VECK120012257
p2980
VCRP-CRP
p2981
I3316406
I3316427
tp2982
a(VECK120012504
p2983
VCpxR
p2984
I3202482
I3202496
tp2985
a(VECK120012506
p2986
VCpxR
p2987
I4388504
I4388518
tp2988
a(VECK120012675
p2989
VCytR
p2990
I4615231
I4615249
tp2991
a(VECK120012320
p2992
VAraC-AraC
p2993
I70184
I70200
tp2994
a(VECK120012323
p2995
VAraC-AraC
p2996
I70205
I70221
tp2997
a(VECK120012328
p2998
VAraC-AraC-AraC-AraC
p2999
I70131
I70147
tp3000
a(VECK120035032
p3001
VArgP
p3002
I28252
I28271
tp3003
a(VECK125160668
p3004
VPuuR-PuuR
p3005
I1359144
I1359163
tp3006
a(VECK120033966
p3007
VFis-Fis
p3008
I2350482
I2350496
tp3009
a(VECK120035036
p3010
VMprA
p3011
I576244
I576264
tp3012
a(VECK120035034
p3013
VSoxS-Rob-MarA-SoxS-MarA-Rob
p3014
I3176034
I3176053
tp3015
a(VECK120011934
p3016
VH-NS
p3017
I1292287
I1292301
tp3018
a(VECK120011936
p3019
VH-NS
p3020
I1292356
I1292370
tp3021
a(VECK120035038
p3022
VMprA
p3023
I484928
I484948
tp3024
a(VECK120011930
p3025
VFis
p3026
I1292348
I1292362
tp3027
a(VECK120011932
p3028
VFis
p3029
I1292245
I1292259
tp3030
a(VECK125158243
p3031
VRcdA
p3032
I292335
I292344
tp3033
a(VECK120048814
p3034
VLexA
p3035
I711238
I711257
tp3036
a(VECK120048816
p3037
VSdiA
p3038
I1790156
I1790172
tp3039
a(VECK120048810
p3040
VLexA
p3041
I606863
I606882
tp3042
a(VECK125158245
p3043
VPhoB
p3044
I1864667
I1864686
tp3045
a(VECK120048812
p3046
VLexA
p3047
I1821506
I1821525
tp3048
a(VECK125158248
p3049
VPhoB
p3050
I1626321
I1626339
tp3051
a(VECK120048819
p3052
VPhoP
p3053
I3175980
I3175996
tp3054
a(VECK120012038
p3055
VChbR-ChbR
p3056
I1819779
I1819797
tp3057
a(VECK120012034
p3058
VCRP
p3059
I1819823
I1819844
tp3060
a(VECK120012032
p3061
VFur
p3062
I4516303
I4516321
tp3063
a(VECK120033936
p3064
VFur
p3065
I4514764
I4514782
tp3066
a(VECK120048928
p3067
VLrp
p3068
I2307070
I2307081
tp3069
a(VECK120048920
p3070
VLrp
p3071
I2306712
I2306723
tp3072
a(VECK120048922
p3073
VLrp
p3074
I2306852
I2306863
tp3075
a(VECK120048924
p3076
VLrp
p3077
I2306898
I2306909
tp3078
a(VECK120048926
p3079
VLrp
p3080
I2306962
I2306973
tp3081
a(VECK120016866
p3082
VCRP
p3083
I989664
I989685
tp3084
a(VECK120016864
p3085
VCRP
p3086
I3491702
I3491723
tp3087
a(VECK120016862
p3088
VCRP
p3089
I3491957
I3491978
tp3090
a(VECK120016860
p3091
VCRP
p3092
I3084528
I3084549
tp3093
a(VECK120016868
p3094
VCRP
p3095
I989834
I989855
tp3096
a(VECK120016199
p3097
VFis
p3098
I3268763
I3268777
tp3099
a(VECK120016192
p3100
VLrp-Lrp
p3101
I2311053
I2311067
tp3102
a(VECK120016101
p3103
VLexA
p3104
I738568
I738587
tp3105
a(VECK125108957
p3106
VOxyR-OxyR
p3107
I890057
I890073
tp3108
a(VECK120016195
p3109
VLrp-Lrp-Lrp
p3110
I2311221
I2311235
tp3111
a(VECK120013121
p3112
VFur
p3113
I623942
I623960
tp3114
a(VECK125140745
p3115
VMazE-MazF-MazE-MazF
p3116
I2909384
I2909410
tp3117
a(VECK120016468
p3118
VCpxR
p3119
I2310979
I2310993
tp3120
a(VECK120033888
p3121
VPdhR
p3122
I1165172
I1165188
tp3123
a(VECK120013124
p3124
VFur
p3125
I4516310
I4516328
tp3126
a(VECK120013127
p3127
VFur
p3128
I1309050
I1309068
tp3129
a(VECK120016462
p3130
VCpxR
p3131
I986681
I986695
tp3132
a(VECK120016460
p3133
VCpxR
p3134
I986376
I986391
tp3135
a(VECK120016466
p3136
VCpxR
p3137
I2310942
I2310952
tp3138
a(VECK120016464
p3139
VCpxR
p3140
I986737
I986752
tp3141
a(VECK125141183
p3142
VCpxR
p3143
I3865383
I3865399
tp3144
a(VECK125141181
p3145
VCpxR
p3146
I3865416
I3865431
tp3147
a(VECK120013499
p3148
VGcvA
p3149
I3049013
I3049027
tp3150
a(VECK120013493
p3151
VCRP
p3152
I411699
I411720
tp3153
a(VECK120013496
p3154
VFur-Fur
p3155
I709937
I709955
tp3156
a(VECK120016996
p3157
VArcA
p3158
I2866197
I2866211
tp3159
a(VECK120016998
p3160
VArcA
p3161
I2866110
I2866124
tp3162
a(VECK120013019
p3163
VBetI-BetI
p3164
I328605
I328624
tp3165
a(VECK120017021
p3166
VCysB
p3167
I996783
I996824
tp3168
a(VECK120017022
p3169
VArcA
p3170
I1073339
I1073353
tp3171
a(VECK120018527
p3172
VZntR
p3173
I3604410
I3604431
tp3174
a(VECK120018520
p3175
VExuR
p3176
I3244627
I3244644
tp3177
a(VECK120018521
p3178
VUxuR-ExuR
p3179
I4552426
I4552443
tp3180
a(VECK125135185
p3181
VCsgD
p3182
I3838125
I3838138
tp3183
a(VECK120016044
p3184
VCRP
p3185
I986397
I986418
tp3186
a(VECK125135187
p3187
VCsgD
p3188
I3838110
I3838123
tp3189
a(VECK120016046
p3190
VCRP
p3191
I986357
I986378
tp3192
a(VECK125135181
p3193
VCsgD
p3194
I1102532
I1102545
tp3195
a(VECK120016040
p3196
VCRP
p3197
I1686856
I1686877
tp3198
a(VECK125135183
p3199
VCsgD
p3200
I1102727
I1102740
tp3201
a(VECK120016042
p3202
VCRP
p3203
I986426
I986447
tp3204
a(VECK125134906
p3205
VNagC
p3206
I1584705
I1584727
tp3207
a(VECK125134904
p3208
VNagC
p3209
I1120735
I1120757
tp3210
a(VECK125134902
p3211
VNagC
p3212
I4633490
I4633512
tp3213
a(VECK120016048
p3214
VCRP
p3215
I121646
I121667
tp3216
a(VECK125134900
p3217
VNagC-NagC-NagC-Mlc
p3218
I2531524
I2531546
tp3219
a(VECK125141989
p3220
VArgR
p3221
I2947236
I2947253
tp3222
a(VECK120013277
p3223
VLrp
p3224
I3790670
I3790684
tp3225
a(VECK120013273
p3226
VLrp
p3227
I1298483
I1298497
tp3228
a(VECK120013279
p3229
VRhaS
p3230
I4095527
I4095543
tp3231
a(VECK120013784
p3232
VXapR
p3233
I2523045
I2523057
tp3234
a(VECK120013782
p3235
VXapR
p3236
I2522965
I2522977
tp3237
a(VECK120026340
p3238
VCsgD
p3239
I402859
I402869
tp3240
a(VECK120026342
p3241
VCsgD
p3242
I402839
I402852
tp3243
a(VECK120013789
p3244
VXylR
p3245
I3728863
I3728880
tp3246
a(VECK120026344
p3247
VCsgD
p3248
I255731
I255741
tp3249
a(VECK120013308
p3250
VFNR
p3251
I953750
I953763
tp3252
a(VECK120013659
p3253
VLrp
p3254
I2253186
I2253197
tp3255
a(VECK125110249
p3256
VArcA
p3257
I3229657
I3229671
tp3258
a(VECK120013653
p3259
VCRP
p3260
I2229736
I2229757
tp3261
a(VECK120013651
p3262
VCRP
p3263
I2229738
I2229759
tp3264
a(VECK120013657
p3265
VFNR
p3266
I2253277
I2253290
tp3267
a(VECK120013655
p3268
VCytR
p3269
I2229769
I2229785
tp3270
a(VECK120011781
p3271
VIHF
p3272
I4285588
I4285600
tp3273
a(VECK120011786
p3274
VOmpR
p3275
I986676
I986695
tp3276
a(VECK120011784
p3277
VCRP
p3278
I4464283
I4464304
tp3279
a(VECK120011788
p3280
VOmpR
p3281
I986376
I986395
tp3282
a(VECK120030690
p3283
VPdhR
p3284
I4514763
I4514779
tp3285
a(VECK120013871
p3286
VLrp-Lrp
p3287
I2310874
I2310888
tp3288
a(VECK120013876
p3289
VIHF
p3290
I754054
I754066
tp3291
a(VECK120013874
p3292
VIHF
p3293
I1397673
I1397686
tp3294
a(VECK120030698
p3295
VFis-Fis
p3296
I3483997
I3484011
tp3297
a(VECK120013878
p3298
VIHF
p3299
I4213260
I4213272
tp3300
a(VECK120011653
p3301
VIHF
p3302
I1733280
I1733292
tp3303
a(VECK120011656
p3304
VNtrC
p3305
I3217301
I3217317
tp3306
a(VECK120017150
p3307
VLrhA
p3308
I1976524
I1976538
tp3309
a(VECK120030742
p3310
VFis
p3311
I3484016
I3484030
tp3312
a(VECK120017155
p3313
VH-NS
p3314
I4358154
I4358168
tp3315
a(VECK120030740
p3316
VFur-Fur
p3317
I611892
I611910
tp3318
a(VECK120030741
p3319
VFis
p3320
I3484036
I3484050
tp3321
a(VECK120034066
p3322
VFis
p3323
I1278920
I1278934
tp3324
a(VECK120034064
p3325
VFis
p3326
I3371615
I3371633
tp3327
a(VECK120034062
p3328
VFis
p3329
I3371656
I3371674
tp3330
a(VECK120026357
p3331
VAscG
p3332
I2837372
I2837385
tp3333
a(VECK120034068
p3334
VFis
p3335
I1278957
I1278971
tp3336
a(VECK120033094
p3337
VH-NS
p3338
I611902
I611916
tp3339
a(VECK120033092
p3340
VIHF
p3341
I2321371
I2321383
tp3342
a(VECK120033090
p3343
VIHF
p3344
I2321396
I2321408
tp3345
a(VECK120034997
p3346
VOmpR
p3347
I4374540
I4374559
tp3348
a(VECK120034995
p3349
VArgP
p3350
I3066882
I3066901
tp3351
a(VECK120011259
p3352
VIHF
p3353
I962759
I962771
tp3354
a(VECK120011255
p3355
VIHF
p3356
I962889
I962901
tp3357
a(VECK120011257
p3358
VIHF
p3359
I962809
I962821
tp3360
a(VECK120011253
p3361
VFis
p3362
I3491860
I3491874
tp3363
a(VECK120011326
p3364
VRcsB
p3365
I103511
I103524
tp3366
a(VECK120014148
p3367
VCRP
p3368
I4047827
I4047848
tp3369
a(VECK120011322
p3370
VCpxR
p3371
I1103082
I1103096
tp3372
a(VECK120015769
p3373
VLexA
p3374
I2749749
I2749768
tp3375
a(VECK120030284
p3376
VTyrR-TyrR
p3377
I121600
I121617
tp3378
a(VECK125109299
p3379
VDan
p3380
I3204369
I3204375
tp3381
a(VECK120029537
p3382
VCRP
p3383
I2912349
I2912370
tp3384
a(VECK120011432
p3385
VNac
p3386
I2789143
I2789157
tp3387
a(VECK120011435
p3388
VArcA
p3389
I3126202
I3126216
tp3390
a(VECK120012206
p3391
VGntR-GntR
p3392
I4492507
I4492526
tp3393
a(VECK120012203
p3394
VGntR-GntR
p3395
I4492527
I4492546
tp3396
a(VECK120015229
p3397
VLexA
p3398
I3851322
I3851341
tp3399
a(VECK120015558
p3400
VUidR
p3401
I1694322
I1694337
tp3402
a(VECK120012200
p3403
VCRP-CRP
p3404
I4492539
I4492560
tp3405
a(VECK120015556
p3406
VNarP-NarP-NarL-NarL
p3407
I2301637
I2301652
tp3408
a(VECK120015225
p3409
VRcsB
p3410
I1341535
I1341548
tp3411
a(VECK120015227
p3412
VPspF-PspF
p3413
I1365935
I1365951
tp3414
a(VECK120015221
p3415
VIHF
p3416
I2350266
I2350278
tp3417
a(VECK120012209
p3418
VGntR-GntR
p3419
I4492557
I4492576
tp3420
a(VECK120015223
p3421
VRcsB
p3422
I1554399
I1554412
tp3423
a(VECK120029985
p3424
VIHF
p3425
I996914
I996926
tp3426
a(VECK120029983
p3427
VIHF
p3428
I996957
I996969
tp3429
a(VECK120012689
p3430
VNarL
p3431
I940052
I940067
tp3432
a(VECK120012683
p3433
VFNR
p3434
I939998
I940011
tp3435
a(VECK120012681
p3436
VDeoR
p3437
I4614406
I4614421
tp3438
a(VECK120029981
p3439
VIHF
p3440
I4233742
I4233754
tp3441
a(VECK120012687
p3442
VNarL
p3443
I940031
I940046
tp3444
a(VECK120012685
p3445
VNarL
p3446
I940011
I940026
tp3447
a(VECK120012519
p3448
VAgaR
p3449
I3276847
I3276866
tp3450
a(VECK120012510
p3451
VH-NS
p3452
I1229688
I1229702
tp3453
a(VECK120012517
p3454
VAgaR
p3455
I3276881
I3276900
tp3456
a(VECK120048792
p3457
VAsnC-AsnC
p3458
I3925070
I3925083
tp3459
a(VECK120032959
p3460
VSgrR
p3461
I2496572
I2496605
tp3462
a(VECK120048794
p3463
VAsnC-AsnC
p3464
I3925102
I3925115
tp3465
a(VECK120012333
p3466
VAraC
p3467
I1984420
I1984436
tp3468
a(VECK120013640
p3469
VFis
p3470
I127681
I127695
tp3471
a(VECK120012331
p3472
VAraC
p3473
I1984345
I1984361
tp3474
a(VECK120012335
p3475
VAraC
p3476
I411788
I411804
tp3477
a(VECK120035006
p3478
VLrp
p3479
I1297786
I1297800
tp3480
a(VECK120012339
p3481
VRhaS
p3482
I4098655
I4098671
tp3483
a(VECK125135115
p3484
VGadX
p3485
I4161517
I4161536
tp3486
a(VECK120011928
p3487
VFis
p3488
I1292456
I1292470
tp3489
a(VECK120011926
p3490
VFis
p3491
I1292417
I1292431
tp3492
a(VECK120011924
p3493
VFis
p3494
I1292292
I1292306
tp3495
a(VECK120011922
p3496
VFis
p3497
I1292184
I1292198
tp3498
a(VECK120011920
p3499
VFis
p3500
I1292150
I1292164
tp3501
a(VECK120011790
p3502
VOmpR
p3503
I986356
I986375
tp3504
a(VECK120023297
p3505
VOmpR
p3506
I2974272
I2974291
tp3507
a(VECK120023298
p3508
VOmpR
p3509
I2974469
I2974488
tp3510
a(VECK120023299
p3511
VIHF
p3512
I3372555
I3372567
tp3513
a(VECK120016211
p3514
VFNR
p3515
I1229744
I1229757
tp3516
a(VECK120016213
p3517
VFNR
p3518
I1333758
I1333771
tp3519
a(VECK120012022
p3520
VZur-Zur
p3521
I1940637
I1940659
tp3522
a(VECK120020698
p3523
VIscR
p3524
I176521
I176545
tp3525
a(VECK120016852
p3526
VCRP
p3527
I2823460
I2823481
tp3528
a(VECK125141284
p3529
VPurR
p3530
I3084052
I3084067
tp3531
a(VECK120016850
p3532
VCRP
p3533
I2823761
I2823782
tp3534
a(VECK120016856
p3535
VCRP
p3536
I3408005
I3408026
tp3537
a(VECK120016854
p3538
VCRP
p3539
I2714575
I2714596
tp3540
a(VECK125141282
p3541
VPurR
p3542
I1261441
I1261456
tp3543
a(VECK120016858
p3544
VCRP
p3545
I3408090
I3408111
tp3546
a(VECK125108945
p3547
VOxyR-OxyR
p3548
I638070
I638086
tp3549
a(VECK125108947
p3550
VOxyR
p3551
I497192
I497208
tp3552
a(VECK125108949
p3553
VOxyR
p3554
I1762666
I1762682
tp3555
a(VECK120016456
p3556
VNarL
p3557
I4349740
I4349755
tp3558
a(VECK120015981
p3559
VNarL
p3560
I1277067
I1277082
tp3561
a(VECK120016454
p3562
VNarL
p3563
I4366559
I4366574
tp3564
a(VECK120016452
p3565
VNarL
p3566
I4366523
I4366538
tp3567
a(VECK120016450
p3568
VNarL
p3569
I4366514
I4366529
tp3570
a(VECK120033898
p3571
VSlyA
p3572
I1229623
I1229634
tp3573
a(VECK120033896
p3574
VSlyA
p3575
I1229632
I1229643
tp3576
a(VECK120033894
p3577
VPdhR
p3578
I175078
I175094
tp3579
a(VECK120015983
p3580
VNarL
p3581
I1277080
I1277095
tp3582
a(VECK120016458
p3583
VCpxR
p3584
I986401
I986415
tp3585
a(VECK120033890
p3586
VPdhR
p3587
I451046
I451062
tp3588
a(VECK125095382
p3589
VNsrR
p3590
I3965817
I3965827
tp3591
a(VECK125095380
p3592
VNsrR
p3593
I229156
I229166
tp3594
a(VECK125095384
p3595
VNsrR
p3596
I374121
I374131
tp3597
a(VECK125158279
p3598
VDnaA
p3599
I3881941
I3881949
tp3600
a(VECK125134898
p3601
VCRP
p3602
I1608828
I1608849
tp3603
a(VECK125141190
p3604
VBaeR
p3605
I2585526
I2585545
tp3606
a(VECK125158274
p3607
VDicA
p3608
I1645889
I1645908
tp3609
a(VECK125141192
p3610
VFadR
p3611
I463577
I463593
tp3612
a(VECK125158272
p3613
VPgrR
p3614
I1389977
I1389990
tp3615
a(VECK125141194
p3616
VCreB
p3617
I4244461
I4244478
tp3618
a(VECK125141196
p3619
VCreB
p3620
I2576410
I2576427
tp3621
a(VECK120013464
p3622
VGlpR
p3623
I4115132
I4115151
tp3624
a(VECK125110193
p3625
VYqhC
p3626
I3153260
I3153283
tp3627
a(VECK120013466
p3628
VCRP
p3629
I4116234
I4116255
tp3630
a(VECK120013460
p3631
VGlpR
p3632
I4116254
I4116273
tp3633
a(VECK120013462
p3634
VGlpR
p3635
I4115174
I4115193
tp3636
a(VECK120013468
p3637
VCRP
p3638
I4116211
I4116232
tp3639
a(VECK125110191
p3640
VYqhC
p3641
I3153239
I3153262
tp3642
a(VECK120013187
p3643
VMarA-Rob
p3644
I2248780
I2248799
tp3645
a(VECK120013068
p3646
VCynR-CynR
p3647
I357962
I357970
tp3648
a(VECK120017039
p3649
VFNR
p3650
I42072
I42085
tp3651
a(VECK120017032
p3652
VFNR
p3653
I2618976
I2618989
tp3654
a(VECK120016030
p3655
VCRP
p3656
I624014
I624035
tp3657
a(VECK120016032
p3658
VFur
p3659
I624057
I624075
tp3660
a(VECK120016521
p3661
VGcvA-GcvA
p3662
I2940668
I2940682
tp3663
a(VECK120016034
p3664
VCRP
p3665
I611922
I611943
tp3666
a(VECK120016036
p3667
VFur-Fur
p3668
I611880
I611898
tp3669
a(VECK120016038
p3670
VCRP
p3671
I841019
I841040
tp3672
a(VECK120016528
p3673
VCytR
p3674
I4122567
I4122583
tp3675
a(VECK125134912
p3676
VNagC
p3677
I3537940
I3537962
tp3678
a(VECK125110199
p3679
VFur
p3680
I3272858
I3272876
tp3681
a(VECK120013206
p3682
VNagC
p3683
I1899949
I1899971
tp3684
a(VECK120013209
p3685
VNarL
p3686
I1545264
I1545279
tp3687
a(VECK120029619
p3688
VArgR
p3689
I3352191
I3352208
tp3690
a(VECK120051670
p3691
VZur
p3692
I2039343
I2039365
tp3693
a(VECK120012440
p3694
VCRP
p3695
I1327315
I1327336
tp3696
a(VECK120016149
p3697
VCRP
p3698
I953746
I953767
tp3699
a(VECK120013661
p3700
VIHF
p3701
I2253113
I2253125
tp3702
a(VECK125135084
p3703
VMqsA
p3704
I3166627
I3166641
tp3705
a(VECK120016145
p3706
VLexA
p3707
I1229931
I1229950
tp3708
a(VECK125110271
p3709
VNhaR
p3710
I17406
I17422
tp3711
a(VECK120013668
p3712
VPhoB
p3713
I1084048
I1084066
tp3714
a(VECK120016143
p3715
VFur
p3716
I623945
I623963
tp3717
a(VECK120013849
p3718
VLrp-Lrp-Lrp
p3719
I2310844
I2310858
tp3720
a(VECK120013517
p3721
VMalI
p3722
I1697234
I1697251
tp3723
a(VECK120013843
p3724
VLrp-Lrp-Lrp
p3725
I2310760
I2310774
tp3726
a(VECK120013841
p3727
VArcA
p3728
I770302
I770316
tp3729
a(VECK120013688
p3730
VNarL
p3731
I1278943
I1278958
tp3732
a(VECK120030684
p3733
VArcA
p3734
I2459182
I2459196
tp3735
a(VECK120013684
p3736
VNarL
p3737
I1278965
I1278980
tp3738
a(VECK120013686
p3739
VNarL
p3740
I1278951
I1278966
tp3741
a(VECK120030688
p3742
VCRP
p3743
I3656338
I3656359
tp3744
a(VECK120013680
p3745
VNarL
p3746
I1278933
I1278948
tp3747
a(VECK120013682
p3748
VNarL
p3749
I1278814
I1278829
tp3750
a(VECK120012306
p3751
VGadE
p3752
I3656328
I3656347
tp3753
a(VECK120012304
p3754
VFNR
p3755
I2683817
I2683830
tp3756
a(VECK120011688
p3757
VFis
p3758
I4033122
I4033136
tp3759
a(VECK120011682
p3760
VFis
p3761
I4033184
I4033198
tp3762
a(VECK120011686
p3763
VFis
p3764
I4033144
I4033158
tp3765
a(VECK120011684
p3766
VFis
p3767
I4033164
I4033178
tp3768
a(VECK120013746
p3769
VCysB
p3770
I384315
I384356
tp3771
a(VECK120034052
p3772
VFis
p3773
I1031179
I1031193
tp3774
a(VECK120034050
p3775
VFis
p3776
I1229664
I1229678
tp3777
a(VECK120034056
p3778
VFis
p3779
I4440315
I4440333
tp3780
a(VECK120012300
p3781
VH-NS
p3782
I2802925
I2802939
tp3783
a(VECK120034054
p3784
VFis
p3785
I1811833
I1811847
tp3786
a(VECK120034058
p3787
VFis
p3788
I4440279
I4440297
tp3789
a(VECK120029432
p3790
VNac
p3791
I3056501
I3056515
tp3792
a(VECK120029430
p3793
VNac
p3794
I3056490
I3056504
tp3795
a(VECK120020769
p3796
VArgR
p3797
I3488254
I3488271
tp3798
a(VECK120020768
p3799
VArgR
p3800
I2947215
I2947232
tp3801
a(VECK120011226
p3802
VIHF
p3803
I940073
I940085
tp3804
a(VECK120011350
p3805
VDcuR
p3806
I4380531
I4380547
tp3807
a(VECK120011352
p3808
VDcuR
p3809
I3681619
I3681635
tp3810
a(VECK120051511
p3811
VNsrR
p3812
I1762443
I1762453
tp3813
a(VECK120011356
p3814
VFabR
p3815
I1015732
I1015749
tp3816
a(VECK120011358
p3817
VFabR
p3818
I2439675
I2439692
tp3819
a(VECK120029481
p3820
VCRP
p3821
I956721
I956742
tp3822
a(VECK125145857
p3823
VBasR
p3824
I3346381
I3346400
tp3825
a(VECK125145853
p3826
VCRP
p3827
I4589512
I4589533
tp3828
a(VECK125145859
p3829
VBasR
p3830
I1102648
I1102667
tp3831
a(VECK120015761
p3832
VCRP
p3833
I4366535
I4366556
tp3834
a(VECK120051356
p3835
VArcA
p3836
I635838
I635852
tp3837
a(VECK120051350
p3838
VCRP
p3839
I3521020
I3521041
tp3840
a(VECK120015767
p3841
VLexA
p3842
I2749771
I2749790
tp3843
a(VECK120014146
p3844
VFis
p3845
I131340
I131354
tp3846
a(VECK120014144
p3847
VFis
p3848
I131438
I131452
tp3849
a(VECK120014142
p3850
VFis
p3851
I131482
I131496
tp3852
a(VECK120051359
p3853
VArcA
p3854
I1211322
I1211336
tp3855
a(VECK120014140
p3856
VArcA
p3857
I131342
I131356
tp3858
a(VECK120012233
p3859
VIHF
p3860
I3491888
I3491900
tp3861
a(VECK120012231
p3862
VArcA
p3863
I1156897
I1156911
tp3864
a(VECK120012237
p3865
VFNR
p3866
I2830314
I2830327
tp3867
a(VECK120012235
p3868
VFis
p3869
I3491905
I3491919
tp3870
a(VECK120015236
p3871
VPrpR-PrpR
p3872
I347745
I347768
tp3873
a(VECK120015544
p3874
VNarP-NarL
p3875
I1031189
I1031204
tp3876
a(VECK120015231
p3877
VCRP-CRP
p3878
I347753
I347774
tp3879
a(VECK120015546
p3880
VNarL-NarP
p3881
I1031205
I1031220
tp3882
a(VECK120012834
p3883
VOmpR-OmpR
p3884
I2310910
I2310929
tp3885
a(VECK120012527
p3886
VAgaR
p3887
I3279880
I3279899
tp3888
a(VECK120012836
p3889
VOmpR-OmpR
p3890
I2310890
I2310909
tp3891
a(VECK120012525
p3892
VAgaR
p3893
I3279923
I3279942
tp3894
a(VECK120012830
p3895
VCRP
p3896
I1019443
I1019464
tp3897
a(VECK120012523
p3898
VCRP
p3899
I3276817
I3276838
tp3900
a(VECK120012832
p3901
VOmpR-OmpR
p3902
I2310931
I2310950
tp3903
a(VECK120012521
p3904
VAgaR
p3905
I3276803
I3276822
tp3906
a(VECK120012838
p3907
VIHF
p3908
I986485
I986497
tp3909
a(VECK120012529
p3910
VAgaR
p3911
I3279849
I3279868
tp3912
a(VECK120048784
p3913
VRutR
p3914
I623771
I623786
tp3915
a(VECK120048786
p3916
VFis
p3917
I2632133
I2632147
tp3918
a(VECK120012659
p3919
VFur-Fur
p3920
I2244971
I2244989
tp3921
a(VECK120012308
p3922
VGadE
p3923
I3656295
I3656314
tp3924
a(VECK125134890
p3925
VCra
p3926
I4109675
I4109692
tp3927
a(VECK120012654
p3928
VArgR
p3929
I29623
I29640
tp3930
a(VECK120012656
p3931
VFur-Fur
p3932
I2244977
I2244995
tp3933
a(VECK120012302
p3934
VH-NS
p3935
I2802939
I2802953
tp3936
a(VECK120048788
p3937
VFis
p3938
I2632115
I2632129
tp3939
a(VECK120012652
p3940
VArgR
p3941
I29602
I29619
tp3942
a(VECK120035018
p3943
VLrp
p3944
I931551
I931565
tp3945
a(VECK120035010
p3946
VLrp
p3947
I1297635
I1297649
tp3948
a(VECK120035012
p3949
VFis
p3950
I848192
I848206
tp3951
a(VECK120035014
p3952
VFis
p3953
I848176
I848190
tp3954
a(VECK120035016
p3955
VH-NS
p3956
I848166
I848175
tp3957
a(VECK120011913
p3958
VNagC-NagC
p3959
I702927
I702949
tp3960
a(VECK120011910
p3961
VNagC-NagC
p3962
I703021
I703043
tp3963
a(VECK120011916
p3964
VCRP-CRP
p3965
I702991
I703012
tp3966
a(VECK120012782
p3967
VMalT-MalT
p3968
I4244524
I4244533
tp3969
a(VECK120012785
p3970
VMalT-MalT
p3971
I4244714
I4244723
tp3972
a(VECK120012788
p3973
VMalT
p3974
I3550588
I3550597
tp3975
a(VECK120012018
p3976
VArcA
p3977
I4464463
I4464477
tp3978
a(VECK120016208
p3979
VFNR-FNR
p3980
I2350558
I2350571
tp3981
a(VECK120016203
p3982
VFis
p3983
I3268657
I3268671
tp3984
a(VECK120012013
p3985
VArcA
p3986
I3775287
I3775301
tp3987
a(VECK120016201
p3988
VFis
p3989
I3268725
I3268739
tp3990
a(VECK120012011
p3991
VArcA
p3992
I3126195
I3126209
tp3993
a(VECK120012016
p3994
VArcA
p3995
I1614987
I1615001
tp3996
a(VECK120016205
p3997
VFis
p3998
I3268597
I3268611
tp3999
a(VECK120029558
p4000
VFis-Fis
p4001
I1328798
I1328812
tp4002
a(VECK120033900
p4003
VSlyA
p4004
I1229608
I1229619
tp4005
a(VECK125135079
p4006
VGadX-GadW-GadX-GadX
p4007
I3655784
I3655803
tp4008
a(VECK125140767
p4009
VMntR
p4010
I852277
I852298
tp4011
a(VECK125147060
p4012
VCRP-CRP
p4013
I1686563
I1686584
tp4014
a(VECK125140761
p4015
VFur
p4016
I1903402
I1903421
tp4017
a(VECK125134859
p4018
VYqjI
p4019
I3214534
I3214553
tp4020
a(VECK120016448
p4021
VNarL
p4022
I4349731
I4349746
tp4023
a(VECK125134857
p4024
VYqjI
p4025
I3214764
I3214783
tp4026
a(VECK125141164
p4027
VCRP
p4028
I4398136
I4398157
tp4029
a(VECK125158268
p4030
VYpdB
p4031
I3710135
I3710144
tp4032
a(VECK125141167
p4033
VCpxR
p4034
I1102611
I1102625
tp4035
a(VECK125158260
p4036
VIscR
p4037
I1031156
I1031180
tp4038
a(VECK125158262
p4039
VArcA
p4040
I1031189
I1031210
tp4041
a(VECK120033902
p4042
VSlyA
p4043
I1229594
I1229605
tp4044
a(VECK125141169
p4045
VCpxR
p4046
I1102820
I1102834
tp4047
a(VECK125158266
p4048
VYpdB
p4049
I3710114
I3710123
tp4050
a(VECK120013476
p4051
VIHF
p4052
I1976505
I1976517
tp4053
a(VECK120013474
p4054
VOmpR
p4055
I1976392
I1976411
tp4056
a(VECK120013472
p4057
VOmpR
p4058
I1976555
I1976574
tp4059
a(VECK120013470
p4060
VCRP
p4061
I4328298
I4328319
tp4062
a(VECK120013478
p4063
VPhoB
p4064
I3909636
I3909654
tp4065
a(VECK120013078
p4066
VCytR
p4067
I4014344
I4014362
tp4068
a(VECK120016538
p4069
VFis
p4070
I3316380
I3316394
tp4071
a(VECK120018502
p4072
VCRP
p4073
I1064539
I1064560
tp4074
a(VECK120016534
p4075
VCRP
p4076
I3590465
I3590486
tp4077
a(VECK120018500
p4078
VAllR
p4079
I533103
I533119
tp4080
a(VECK120016536
p4081
VPhoB
p4082
I3590466
I3590484
tp4083
a(VECK120018507
p4084
VUxuR-UxuR-ExuR
p4085
I4549373
I4549390
tp4086
a(VECK120013075
p4087
VCysB
p4088
I2874454
I2874495
tp4089
a(VECK120016848
p4090
VCRP
p4091
I2342630
I2342651
tp4092
a(VECK120051386
p4093
VLexA
p4094
I250864
I250883
tp4095
a(VECK120016844
p4096
VCRP
p4097
I1617054
I1617075
tp4098
a(VECK120016846
p4099
VCRP
p4100
I794212
I794233
tp4101
a(VECK120016840
p4102
VCRP
p4103
I2749002
I2749023
tp4104
a(VECK120016842
p4105
VCRP
p4106
I4199694
I4199715
tp4107
a(VECK120013217
p4108
VOxyR
p4109
I848209
I848225
tp4110
a(VECK125109301
p4111
VDan
p4112
I3204351
I3204357
tp4113
a(VECK125109303
p4114
VDan
p4115
I3204309
I3204315
tp4116
a(VECK125109305
p4117
VDan
p4118
I3204280
I3204286
tp4119
a(VECK125109307
p4120
VIscR
p4121
I2763874
I2763898
tp4122
a(VECK120013025
p4123
VCRP-CRP
p4124
I710006
I710027
tp4125
a(VECK120013670
p4126
VFis
p4127
I424144
I424158
tp4128
a(VECK125110266
p4129
VAda
p4130
I2308476
I2308499
tp4131
a(VECK120013674
p4132
VFNR
p4133
I2301654
I2301667
tp4134
a(VECK120013676
p4135
VNarL
p4136
I1278921
I1278936
tp4137
a(VECK120013678
p4138
VNarL
p4139
I1278837
I1278852
tp4140
a(VECK125135094
p4141
VGadW-GadX
p4142
I1570206
I1570225
tp4143
a(VECK120016152
p4144
VCRP
p4145
I127688
I127709
tp4146
a(VECK120013458
p4147
VGlpR
p4148
I4116233
I4116252
tp4149
a(VECK120013509
p4150
VNtrC
p4151
I847341
I847357
tp4152
a(VECK120013507
p4153
VNtrC
p4154
I847371
I847387
tp4155
a(VECK120030321
p4156
VCspA
p4157
I2337584
I2337590
tp4158
a(VECK120013505
p4159
VIHF
p4160
I847311
I847323
tp4161
a(VECK120013023
p4162
VCRP
p4163
I4434685
I4434706
tp4164
a(VECK120013503
p4165
VPurR
p4166
I3048780
I3048795
tp4167
a(VECK120013501
p4168
VLrp
p4169
I3048948
I3048962
tp4170
a(VECK120013699
p4171
VArcA
p4172
I753963
I753977
tp4173
a(VECK120023401
p4174
VH-NS
p4175
I4358382
I4358396
tp4176
a(VECK120013694
p4177
VFNR
p4178
I121977
I121990
tp4179
a(VECK120013692
p4180
VFNR
p4181
I1277100
I1277113
tp4182
a(VECK120013690
p4183
VFNR
p4184
I1276887
I1276900
tp4185
a(VECK120017175
p4186
VPdhR
p4187
I122044
I122060
tp4188
a(VECK120023400
p4189
VH-NS
p4190
I4358439
I4358453
tp4191
a(VECK120011694
p4192
VFis
p4193
I3939411
I3939425
tp4194
a(VECK120011696
p4195
VFur-Fur
p4196
I2798608
I2798626
tp4197
a(VECK120011690
p4198
VFis
p4199
I3939462
I3939476
tp4200
a(VECK120011692
p4201
VFis
p4202
I3939431
I3939445
tp4203
a(VECK120034044
p4204
VFis
p4205
I1229792
I1229806
tp4206
a(VECK120034046
p4207
VFis
p4208
I1229745
I1229759
tp4209
a(VECK120011699
p4210
VFur
p4211
I786841
I786859
tp4212
a(VECK120029561
p4213
VFis-Fis
p4214
I1328767
I1328781
tp4215
a(VECK120034042
p4216
VFis
p4217
I1229874
I1229888
tp4218
a(VECK120020710
p4219
VFNR
p4220
I451063
I451076
tp4221
a(VECK120020712
p4222
VIHF
p4223
I1277019
I1277031
tp4224
a(VECK120013936
p4225
VIHF
p4226
I1793786
I1793798
tp4227
a(VECK120011238
p4228
VCRP
p4229
I1156938
I1156959
tp4230
a(VECK120011231
p4231
VFNR
p4232
I816004
I816017
tp4233
a(VECK120011343
p4234
VCRP
p4235
I3681592
I3681613
tp4236
a(VECK125145846
p4237
VRob-MarA-SoxS
p4238
I4633386
I4633405
tp4239
a(VECK125145844
p4240
VRcsB
p4241
I936501
I936514
tp4242
a(VECK125145840
p4243
VUxuR
p4244
I4552565
I4552582
tp4245
a(VECK120030258
p4246
VArcA
p4247
I1887831
I1887845
tp4248
a(VECK120014158
p4249
VFNR
p4250
I930338
I930351
tp4251
a(VECK120051344
p4252
VEvgA
p4253
I2492522
I2492539
tp4254
a(VECK120051342
p4255
VFis
p4256
I1878042
I1878056
tp4257
a(VECK120033128
p4258
VGadW-GadX-GadX-GadX
p4259
I3655763
I3655782
tp4260
a(VECK120014150
p4261
VCRP
p4262
I2510980
I2511001
tp4263
a(VECK120033125
p4264
VGalR-GalS
p4265
I2974591
I2974606
tp4266
a(VECK120014152
p4267
VCRP
p4268
I2510931
I2510952
tp4269
a(VECK120033123
p4270
VIscR
p4271
I1762575
I1762599
tp4272
a(VECK120014154
p4273
VNarL
p4274
I930372
I930387
tp4275
a(VECK120033121
p4276
VIscR
p4277
I1762534
I1762558
tp4278
a(VECK120014156
p4279
VNarL
p4280
I930326
I930341
tp4281
a(VECK120015205
p4282
VCRP
p4283
I3086224
I3086245
tp4284
a(VECK125134679
p4285
VPhoP
p4286
I1331758
I1331780
tp4287
a(VECK125108654
p4288
VFur
p4289
I1986620
I1986638
tp4290
a(VECK125134675
p4291
VFis
p4292
I3376701
I3376720
tp4293
a(VECK125134677
p4294
VPdhR
p4295
I659448
I659464
tp4296
a(VECK125134671
p4297
VMlrA
p4298
I3331607
I3331640
tp4299
a(VECK125134673
p4300
VMlrA
p4301
I3335009
I3335042
tp4302
a(VECK120012531
p4303
VAgaR
p4304
I3279807
I3279826
tp4305
a(VECK120012826
p4306
VDnaA
p4307
I2342725
I2342733
tp4308
a(VECK120012533
p4309
VAgaR
p4310
I3279690
I3279709
tp4311
a(VECK120012824
p4312
VFis
p4313
I2342614
I2342628
tp4314
a(VECK120012535
p4315
VAgaR
p4316
I3279627
I3279646
tp4317
a(VECK120012537
p4318
VH-NS
p4319
I365537
I365551
tp4320
a(VECK120012820
p4321
VFNR
p4322
I3491961
I3491974
tp4323
a(VECK120012539
p4324
VH-NS
p4325
I365555
I365569
tp4326
a(VECK120051507
p4327
VNsrR
p4328
I1498582
I1498592
tp4329
a(VECK120051501
p4330
VNsrR
p4331
I2854846
I2854856
tp4332
a(VECK120051503
p4333
VNsrR
p4334
I2854963
I2854973
tp4335
a(VECK120012828
p4336
VDnaA
p4337
I2342736
I2342744
tp4338
a(VECK120011381
p4339
VNhaR
p4340
I1554570
I1554586
tp4341
a(VECK120012649
p4342
VBirA-BirA
p4343
I808485
I808524
tp4344
a(VECK120012310
p4345
VGadE
p4346
I3656160
I3656179
tp4347
a(VECK120012644
p4348
VTrpR
p4349
I405551
I405568
tp4350
a(VECK120012642
p4351
VTyrR
p4352
I405525
I405542
tp4353
a(VECK120012640
p4354
VTyrR
p4355
I405506
I405523
tp4356
a(VECK120011427
p4357
VMarA-SoxS
p4358
I484985
I485004
tp4359
a(VECK120011906
p4360
VDnaA
p4361
I1486202
I1486210
tp4362
a(VECK120011901
p4363
VFadR
p4364
I4221721
I4221737
tp4365
a(VECK120012798
p4366
VMetJ
p4367
I4130565
I4130580
tp4368
a(VECK120012794
p4369
VMetJ
p4370
I4212268
I4212283
tp4371
a(VECK120012796
p4372
VMetJ
p4373
I4130553
I4130568
tp4374
a(VECK120012790
p4375
VMalT
p4376
I3550565
I3550574
tp4377
a(VECK120012792
p4378
VMetJ
p4379
I4212252
I4212267
tp4380
a(VECK120012229
p4381
VArcA
p4382
I1156934
I1156948
tp4383
a(VECK120012225
p4384
VMalT
p4385
I421641
I421650
tp4386
a(VECK120012227
p4387
VArcA
p4388
I1156983
I1156997
tp4389
a(VECK120012221
p4390
VMalT
p4391
I421677
I421686
tp4392
a(VECK120012223
p4393
VMalT
p4394
I421654
I421663
tp4395
a(VECK120012005
p4396
VArcA
p4397
I770082
I770096
tp4398
a(VECK120016237
p4399
VCpxR
p4400
I1102608
I1102622
tp4401
a(VECK120012007
p4402
VArcA
p4403
I770071
I770085
tp4404
a(VECK120016235
p4405
VCpxR
p4406
I1102582
I1102595
tp4407
a(VECK120012001
p4408
VArcA
p4409
I770520
I770534
tp4410
a(VECK120016233
p4411
VCpxR
p4412
I1102558
I1102572
tp4413
a(VECK120012003
p4414
VArcA
p4415
I770093
I770107
tp4416
a(VECK120012009
p4417
VArcA
p4418
I4029058
I4029072
tp4419
a(VECK120016239
p4420
VCpxR
p4421
I1102612
I1102626
tp4422
a(VECK120029979
p4423
VRcsAB
p4424
I4233665
I4233679
tp4425
a(VECK120013980
p4426
VLrp
p4427
I3948474
I3948485
tp4428
a(VECK125141177
p4429
VCpxR
p4430
I2151930
I2151943
tp4431
a(VECK125141175
p4432
VCpxR
p4433
I2585436
I2585453
tp4434
a(VECK125141173
p4435
VCpxR
p4436
I2585468
I2585480
tp4437
a(VECK125141171
p4438
VCpxR
p4439
I2585498
I2585514
tp4440
a(VECK120027930
p4441
VH-NS
p4442
I1314200
I1314209
tp4443
a(VECK120048845
p4444
VMetJ
p4445
I2241822
I2241837
tp4446
a(VECK120048843
p4447
VMetJ
p4448
I2241830
I2241845
tp4449
a(VECK125141179
p4450
VCpxR
p4451
I3037206
I3037220
tp4452
a(VECK120048841
p4453
VMetJ
p4454
I2241838
I2241853
tp4455
a(VECK120013442
p4456
VCRP
p4457
I3103622
I3103643
tp4458
a(VECK120016499
p4459
VMetR-MetR-MetR
p4460
I4010838
I4010852
tp4461
a(VECK120013446
p4462
VCRP
p4463
I431345
I431366
tp4464
a(VECK125110185
p4465
VDnaA
p4466
I2342759
I2342767
tp4467
a(VECK120013444
p4468
VCytR
p4469
I3103590
I3103603
tp4470
a(VECK120013197
p4471
VMetR-MetR
p4472
I2683732
I2683746
tp4473
a(VECK120016493
p4474
VGalS-GalS
p4475
I791245
I791260
tp4476
a(VECK120013448
p4477
VCytR
p4478
I431364
I431381
tp4479
a(VECK120016496
p4480
VFur-Fur
p4481
I3579048
I3579066
tp4482
a(VECK120013047
p4483
VCRP
p4484
I3845314
I3845335
tp4485
a(VECK120013045
p4486
VCRP
p4487
I3103620
I3103641
tp4488
a(VECK120013043
p4489
VCRP
p4490
I411833
I411854
tp4491
a(VECK120016018
p4492
VFur
p4493
I1762451
I1762469
tp4494
a(VECK120013041
p4495
VCRP
p4496
I2932090
I2932111
tp4497
a(VECK120016016
p4498
VIHF
p4499
I1762581
I1762593
tp4500
a(VECK120016014
p4501
VFur
p4502
I4221673
I4221691
tp4503
a(VECK120016012
p4504
VFur
p4505
I4126544
I4126562
tp4506
a(VECK120018518
p4507
VUxuR-UxuR-ExuR
p4508
I4549479
I4549496
tp4509
a(VECK120016010
p4510
VFur
p4511
I451081
I451099
tp4512
a(VECK120016838
p4513
VCRP
p4514
I4549367
I4549388
tp4515
a(VECK120016830
p4516
VCRP
p4517
I450904
I450925
tp4518
a(VECK120016832
p4519
VCRP
p4520
I1887880
I1887901
tp4521
a(VECK120016834
p4522
VCRP
p4523
I2175286
I2175307
tp4524
a(VECK120016836
p4525
VCRP
p4526
I3126199
I3126220
tp4527
a(VECK120048741
p4528
VGalR-GalS
p4529
I3086062
I3086077
tp4530
a(VECK120026396
p4531
VFis
p4532
I4056178
I4056192
tp4533
a(VECK120012263
p4534
VArgR-ArgR
p4535
I3316569
I3316586
tp4536
a(VECK120026467
p4537
VCRP
p4538
I1840289
I1840310
tp4539
a(VECK125109312
p4540
VPhoP-PhoP
p4541
I3654838
I3654854
tp4542
a(VECK125109310
p4543
VPhoP
p4544
I584929
I584945
tp4545
a(VECK125109317
p4546
VPhoP
p4547
I3656172
I3656188
tp4548
a(VECK125109314
p4549
VPhoP
p4550
I3662824
I3662840
tp4551
a(VECK125110219
p4552
VCpxR
p4553
I1102746
I1102760
tp4554
a(VECK120013539
p4555
VTorR
p4556
I1057225
I1057234
tp4557
a(VECK120013533
p4558
VIHF
p4559
I4098752
I4098764
tp4560
a(VECK120013531
p4561
VIHF
p4562
I4098728
I4098740
tp4563
a(VECK120013537
p4564
VFur
p4565
I1309094
I1309112
tp4566
a(VECK120013535
p4567
VIHF
p4568
I4098775
I4098787
tp4569
a(VECK120017169
p4570
VMarR
p4571
I1617122
I1617143
tp4572
a(VECK120033336
p4573
VNarP-NarL
p4574
I4430074
I4430089
tp4575
a(VECK120033334
p4576
VNarL-NarP
p4577
I4430065
I4430080
tp4578
a(VECK120033338
p4579
VNarP-NarL
p4580
I1878049
I1878064
tp4581
a(VECK120017164
p4582
VFis
p4583
I3770340
I3770354
tp4584
a(VECK120017167
p4585
VFis
p4586
I4615192
I4615206
tp4587
a(VECK120013999
p4588
VNarL-NarL
p4589
I1297539
I1297554
tp4590
a(VECK120013990
p4591
VCRP
p4592
I3769981
I3770002
tp4593
a(VECK120013227
p4594
VPurR
p4595
I2683648
I2683663
tp4596
a(VECK120013992
p4597
VFNR
p4598
I1386880
I1386893
tp4599
a(VECK120013225
p4600
VPurR
p4601
I2632146
I2632161
tp4602
a(VECK120013994
p4603
VArcA
p4604
I1386883
I1386897
tp4605
a(VECK120013996
p4606
VCRP-CRP
p4607
I2632236
I2632257
tp4608
a(VECK120034038
p4609
VFis
p4610
I3126155
I3126169
tp4611
a(VECK125134685
p4612
VAidB
p4613
I4412209
I4412234
tp4614
a(VECK120034030
p4615
VFis
p4616
I1570116
I1570130
tp4617
a(VECK120034032
p4618
VFis
p4619
I1570053
I1570067
tp4620
a(VECK120034034
p4621
VFis
p4622
I3126101
I3126115
tp4623
a(VECK120034036
p4624
VFis
p4625
I3126131
I3126145
tp4626
a(VECK120011596
p4627
VSoxS
p4628
I3037796
I3037815
tp4629
a(VECK120020702
p4630
VIscR
p4631
I1031153
I1031177
tp4632
a(VECK120020700
p4633
VIscR
p4634
I1762472
I1762496
tp4635
a(VECK120020704
p4636
VIscR
p4637
I1789310
I1789334
tp4638
a(VECK120014092
p4639
VFNR
p4640
I3611604
I3611617
tp4641
a(VECK120020708
p4642
VArgR
p4643
I3488233
I3488250
tp4644
a(VECK120014095
p4645
VCra
p4646
I3491985
I3492002
tp4647
a(VECK120011598
p4648
VSoxS
p4649
I3037785
I3037804
tp4650
a(VECK120014097
p4651
VIHF
p4652
I1165151
I1165163
tp4653
a(VECK120011754
p4654
VCRP
p4655
I4615197
I4615218
tp4656
a(VECK120011204
p4657
VArgP
p4658
I2342604
I2342623
tp4659
a(VECK120011200
p4660
VTyrR
p4661
I1384612
I1384629
tp4662
a(VECK120011208
p4663
VArgP
p4664
I2342549
I2342568
tp4665
a(VECK120011570
p4666
VIHF-IHF
p4667
I1451768
I1451780
tp4668
a(VECK120011573
p4669
VPaaX
p4670
I1451681
I1451720
tp4671
a(VECK125145873
p4672
VCra
p4673
I331095
I331112
tp4674
a(VECK125108592
p4675
VCytR
p4676
I2229751
I2229766
tp4677
a(VECK120029569
p4678
VFis
p4679
I1328987
I1329001
tp4680
a(VECK125108590
p4681
VCytR
p4682
I4014318
I4014336
tp4683
a(VECK125108597
p4684
VCytR-CytR-CytR
p4685
I3490492
I3490508
tp4686
a(VECK120020639
p4687
VPurR
p4688
I29415
I29430
tp4689
a(VECK125108595
p4690
VCytR
p4691
I431374
I431393
tp4692
a(VECK120020636
p4693
VPepA
p4694
I29365
I29391
tp4695
a(VECK120029564
p4696
VFis-Fis
p4697
I1328741
I1328755
tp4698
a(VECK120020632
p4699
VOmpR
p4700
I1710640
I1710659
tp4701
a(VECK120029567
p4702
VFis
p4703
I1328967
I1328981
tp4704
a(VECK120051373
p4705
VNarL
p4706
I1656005
I1656020
tp4707
a(VECK120012736
p4708
VCRP-CRP
p4709
I2350504
I2350525
tp4710
a(VECK120015215
p4711
VGlpR
p4712
I2350131
I2350150
tp4713
a(VECK120015217
p4714
VGlpR
p4715
I2350116
I2350135
tp4716
a(VECK120012734
p4717
VGlpR
p4718
I3560003
I3560022
tp4719
a(VECK120015211
p4720
VGalR
p4721
I2239634
I2239649
tp4722
a(VECK120015213
p4723
VGlpR
p4724
I2350149
I2350168
tp4725
a(VECK120015219
p4726
VIHF
p4727
I2350433
I2350445
tp4728
a(VECK120012490
p4729
VCRP
p4730
I4453703
I4453724
tp4731
a(VECK120012732
p4732
VGlpR
p4733
I3559984
I3560003
tp4734
a(VECK120030715
p4735
VFur-Fur
p4736
I611899
I611917
tp4737
a(VECK120018509
p4738
VGalR-GalS
p4739
I3086405
I3086420
tp4740
a(VECK120034496
p4741
VTorR
p4742
I3654861
I3654870
tp4743
a(VECK120023169
p4744
VArcA-ArcA-ArcA-ArcA
p4745
I4272057
I4272071
tp4746
a(VECK125134669
p4747
VMlrA
p4748
I4360171
I4360204
tp4749
a(VECK125134667
p4750
VMlrA
p4751
I1102680
I1102713
tp4752
a(VECK125147054
p4753
VBasR
p4754
I1636964
I1636983
tp4755
a(VECK125134663
p4756
VArcA
p4757
I3348563
I3348577
tp4758
a(VECK125134660
p4759
VPhoP
p4760
I1584646
I1584663
tp4761
a(VECK120012812
p4762
VNarL
p4763
I1278827
I1278842
tp4764
a(VECK120013073
p4765
VCysB
p4766
I2541623
I2541664
tp4767
a(VECK120012810
p4768
VIHF
p4769
I1278899
I1278911
tp4770
a(VECK120012816
p4771
VNarL
p4772
I1277049
I1277064
tp4773
a(VECK125108669
p4774
VH-NS
p4775
I1986711
I1986730
tp4776
a(VECK120012814
p4777
VNarL
p4778
I1276953
I1276968
tp4779
a(VECK120011376
p4780
VSoxS
p4781
I1337273
I1337292
tp4782
a(VECK125108665
p4783
VH-NS
p4784
I1986633
I1986667
tp4785
a(VECK120012818
p4786
VFNR
p4787
I1277107
I1277120
tp4788
a(VECK120030712
p4789
VFur-Fur
p4790
I611886
I611904
tp4791
a(VECK120011372
p4792
VArcA
p4793
I655639
I655653
tp4794
a(VECK120011370
p4795
VFNR
p4796
I655415
I655428
tp4797
a(VECK125135189
p4798
VCsgD
p4799
I1067089
I1067102
tp4800
a(VECK120012679
p4801
VDeoR
p4802
I4614985
I4615000
tp4803
a(VECK120012673
p4804
VCRP
p4805
I4615250
I4615271
tp4806
a(VECK120012670
p4807
VDeoR
p4808
I4614086
I4614101
tp4809
a(VECK120012677
p4810
VDeoR
p4811
I4615285
I4615300
tp4812
a(VECK120016530
p4813
VPhoB
p4814
I3590422
I3590440
tp4815
a(VECK120018504
p4816
VCRP-CRP
p4817
I3242974
I3242995
tp4818
a(VECK120034568
p4819
VSoxS
p4820
I1156896
I1156915
tp4821
a(VECK120034566
p4822
VNarL
p4823
I1752700
I1752715
tp4824
a(VECK120034564
p4825
VNarL
p4826
I1752674
I1752689
tp4827
a(VECK120034560
p4828
VNarP
p4829
I1752649
I1752655
tp4830
a(VECK120051340
p4831
VFis
p4832
I1878066
I1878080
tp4833
a(VECK120011970
p4834
VArcA
p4835
I42131
I42145
tp4836
a(VECK120011972
p4837
VArcA
p4838
I42003
I42017
tp4839
a(VECK120011974
p4840
VArcA
p4841
I41981
I41995
tp4842
a(VECK120011976
p4843
VDcuR
p4844
I4347147
I4347163
tp4845
a(VECK120011979
p4846
VArcA
p4847
I1165151
I1165165
tp4848
a(VECK125145864
p4849
VBasR
p4850
I4254440
I4254459
tp4851
a(VECK120012255
p4852
VSlyA
p4853
I1229739
I1229750
tp4854
a(VECK120016026
p4855
VCRP
p4856
I4213384
I4213405
tp4857
a(VECK120014101
p4858
VIHF
p4859
I1165234
I1165246
tp4860
a(VECK125158215
p4861
VCRP
p4862
I1099416
I1099437
tp4863
a(VECK120033934
p4864
VFur
p4865
I4098743
I4098761
tp4866
a(VECK120012072
p4867
VFis-Fis
p4868
I1156837
I1156851
tp4869
a(VECK120033930
p4870
VFur
p4871
I1309054
I1309072
tp4872
a(VECK120033932
p4873
VFur
p4874
I2244965
I2244983
tp4875
a(VECK120012079
p4876
VH-NS
p4877
I3904034
I3904048
tp4878
a(VECK120033938
p4879
VFur
p4880
I4516306
I4516324
tp4881
a(VECK120016028
p4882
VCRP
p4883
I623776
I623797
tp4884
a(VECK120011808
p4885
VLrp
p4886
I4609020
I4609034
tp4887
a(VECK120011804
p4888
VFis
p4889
I4328382
I4328396
tp4890
a(VECK120011806
p4891
VIHF
p4892
I4609073
I4609085
tp4893
a(VECK120011800
p4894
VCRP
p4895
I3103718
I3103739
tp4896
a(VECK120011802
p4897
VFis
p4898
I4328342
I4328356
tp4899
a(VECK125160662
p4900
VPuuR-PuuR
p4901
I1358972
I1358991
tp4902
a(VECK125160666
p4903
VPuuR-PuuR
p4904
I1359109
I1359128
tp4905
a(VECK125110247
p4906
VFadR
p4907
I3229641
I3229657
tp4908
a(VECK125160664
p4909
VPuuR-PuuR
p4910
I1359067
I1359086
tp4911
a(VECK120012104
p4912
VIdnR
p4913
I3575659
I3575674
tp4914
a(VECK120012106
p4915
VIdnR-IdnR
p4916
I4492529
I4492544
tp4917
a(VECK125135252
p4918
VCsgD
p4919
I1102679
I1102692
tp4920
a(VECK125134876
p4921
VCra
p4922
I1617036
I1617053
tp4923
a(VECK125134874
p4924
VCra
p4925
I451137
I451154
tp4926
a(VECK125134872
p4927
VCra
p4928
I347760
I347777
tp4929
a(VECK125134878
p4930
VCra
p4931
I1934427
I1934444
tp4932
a(VECK125141142
p4933
VMntR
p4934
I848180
I848201
tp4935
a(VECK125158283
p4936
VDnaA
p4937
I3881974
I3881982
tp4938
a(VECK125158281
p4939
VDnaA
p4940
I3881952
I3881960
tp4941
a(VECK120013183
p4942
VMarA
p4943
I4112571
I4112590
tp4944
a(VECK120016484
p4945
VFur-Fur
p4946
I621428
I621446
tp4947
a(VECK120013181
p4948
VRob-MarA
p4949
I1934444
I1934463
tp4950
a(VECK120016486
p4951
VMalT-MalT
p4952
I4244680
I4244689
tp4953
a(VECK120016481
p4954
VModE-ModE
p4955
I2301718
I2301741
tp4956
a(VECK120013185
p4957
VMarA
p4958
I1684770
I1684789
tp4959
a(VECK125134894
p4960
VNagC
p4961
I707426
I707448
tp4962
a(VECK120013189
p4963
VRob-MarA
p4964
I4098732
I4098751
tp4965
a(VECK120016489
p4966
VCRP-CRP
p4967
I4244648
I4244669
tp4968
a(VECK125134892
p4969
VCra
p4970
I4453706
I4453723
tp4971
a(VECK125110245
p4972
VFur
p4973
I1121943
I1121966
tp4974
a(VECK120013051
p4975
VCRP
p4976
I4014362
I4014383
tp4977
a(VECK120016008
p4978
VFur
p4979
I1976296
I1976314
tp4980
a(VECK120013055
p4981
VCRP
p4982
I1976480
I1976501
tp4983
a(VECK120013057
p4984
VCRP
p4985
I3735251
I3735272
tp4986
a(VECK120013059
p4987
VCRP
p4988
I3754608
I3754629
tp4989
a(VECK120016006
p4990
VFur
p4991
I1735655
I1735673
tp4992
a(VECK120016828
p4993
VCRP
p4994
I451058
I451079
tp4995
a(VECK120016822
p4996
VNsrR
p4997
I1498550
I1498568
tp4998
a(VECK120016820
p4999
VNsrR
p5000
I2854848
I2854866
tp5001
a(VECK120016826
p5002
VCRP
p5003
I1102727
I1102748
tp5004
a(VECK120016824
p5005
VCRP
p5006
I1102599
I1102620
tp5007
a(VECK125110243
p5008
VFur
p5009
I4098740
I4098758
tp5010
a(VECK125141920
p5011
VRcsB-BglJ
p5012
I84239
I84252
tp5013
a(VECK125158240
p5014
VRcdA
p5015
I1102861
I1102870
tp5016
a(VECK125141924
p5017
VLeuO-LeuO
p5018
I84122
I84142
tp5019
a(VECK125141926
p5020
VLeuO
p5021
I2882411
I2882431
tp5022
a(VECK125109468
p5023
VDpiA-DpiA-DpiA
p5024
I651272
I651294
tp5025
a(VECK125141928
p5026
VLeuO
p5027
I2882311
I2882331
tp5028
a(VECK120035008
p5029
VLrp
p5030
I1297695
I1297707
tp5031
a(VECK125110203
p5032
VFur
p5033
I3579045
I3579063
tp5034
a(VECK120016174
p5035
VMelR-MelR
p5036
I4339663
I4339680
tp5037
a(VECK125110201
p5038
VFur
p5039
I3453699
I3453717
tp5040
a(VECK120016176
p5041
VLrp-Lrp
p5042
I2310781
I2310795
tp5043
a(VECK125110207
p5044
VFur
p5045
I4603787
I4603805
tp5046
a(VECK120016170
p5047
VNagC
p5048
I1899866
I1899888
tp5049
a(VECK125110205
p5050
VFur
p5051
I4603770
I4603788
tp5052
a(VECK120013454
p5053
VGlpR
p5054
I4116192
I4116211
tp5055
a(VECK120013456
p5056
VGlpR
p5057
I4116212
I4116231
tp5058
a(VECK120013452
p5059
VArcA
p5060
I1031133
I1031147
tp5061
a(VECK120013527
p5062
VFNR
p5063
I1165114
I1165127
tp5064
a(VECK120013520
p5065
VCRP-CRP
p5066
I1697285
I1697306
tp5067
a(VECK120013523
p5068
VCRP
p5069
I1899854
I1899875
tp5070
a(VECK125109439
p5071
VSoxS
p5072
I4231696
I4231715
tp5073
a(VECK120013988
p5074
VCRP
p5075
I3770025
I3770046
tp5076
a(VECK120013982
p5077
VIHF-IHF
p5078
I3948444
I3948456
tp5079
a(VECK120013232
p5080
VRcsAB
p5081
I2135705
I2135719
tp5082
a(VECK120013235
p5083
VRhaS
p5084
I4098622
I4098638
tp5085
a(VECK120013985
p5086
VIHF-IHF
p5087
I3948218
I3948230
tp5088
a(VECK120034028
p5089
VFis
p5090
I1570148
I1570162
tp5091
a(VECK120051416
p5092
VFNR
p5093
I636206
I636219
tp5094
a(VECK120034022
p5095
VFis
p5096
I3665715
I3665733
tp5097
a(VECK120034020
p5098
VFis
p5099
I3665739
I3665757
tp5100
a(VECK120034026
p5101
VFis
p5102
I1570194
I1570208
tp5103
a(VECK120034024
p5104
VFis
p5105
I3665639
I3665657
tp5106
a(VECK120029872
p5107
VCpxR
p5108
I1030712
I1030726
tp5109
a(VECK120011581
p5110
VOmpR
p5111
I453601
I453620
tp5112
a(VECK120011583
p5113
VOxyR
p5114
I2716632
I2716648
tp5115
a(VECK120011585
p5116
VMarA
p5117
I3651987
I3652006
tp5118
a(VECK120014083
p5119
VCra
p5120
I3530553
I3530570
tp5121
a(VECK120033214
p5122
VIHF-IHF
p5123
I3637919
I3637931
tp5124
a(VECK120011747
p5125
VFis
p5126
I1286979
I1286993
tp5127
a(VECK120011745
p5128
VNac
p5129
I354043
I354057
tp5130
a(VECK120011212
p5131
VCpxR
p5132
I180765
I180782
tp5133
a(VECK120011743
p5134
VUhpA
p5135
I3845276
I3845295
tp5136
a(VECK120011214
p5137
VCpxR
p5138
I4040358
I4040372
tp5139
a(VECK120011216
p5140
VCpxR
p5141
I180615
I180629
tp5142
a(VECK120011218
p5143
VCpxR
p5144
I3490397
I3490411
tp5145
a(VECK120011749
p5146
VFis
p5147
I1287010
I1287024
tp5148
a(VECK125110260
p5149
VFur
p5150
I167430
I167448
tp5151
a(VECK125145869
p5152
VCra-Cra-Cra
p5153
I2906893
I2906910
tp5154
a(VECK120030279
p5155
VFadR
p5156
I243325
I243341
tp5157
a(VECK120011567
p5158
VCRP-CRP
p5159
I1451820
I1451841
tp5160
a(VECK120030277
p5161
VPurR
p5162
I4402589
I4402604
tp5163
a(VECK120011565
p5164
VPaaX
p5165
I1451899
I1451937
tp5166
a(VECK120030275
p5167
VPurR
p5168
I4402688
I4402703
tp5169
a(VECK120011561
p5170
VIHF
p5171
I2551228
I2551240
tp5172
a(VECK125108588
p5173
VCytR
p5174
I4014336
I4014351
tp5175
a(VECK125135096
p5176
VGadX-GadW
p5177
I1570318
I1570337
tp5178
a(VECK120051418
p5179
VFNR
p5180
I1211377
I1211390
tp5181
a(VECK120051369
p5182
VMarA-SoxS
p5183
I3799192
I3799211
tp5184
a(VECK120029573
p5185
VOxyR
p5186
I497214
I497230
tp5187
a(VECK120029571
p5188
VFis
p5189
I1329016
I1329030
tp5190
a(VECK120029577
p5191
VFis
p5192
I4173274
I4173288
tp5193
a(VECK120029575
p5194
VFis
p5195
I4173306
I4173320
tp5196
a(VECK120051362
p5197
VArcA
p5198
I1211476
I1211490
tp5199
a(VECK120033101
p5200
VIHF
p5201
I4538108
I4538120
tp5202
a(VECK120012488
p5203
VTorR
p5204
I3886374
I3886383
tp5205
a(VECK120015590
p5206
VCpxR
p5207
I2714672
I2714686
tp5208
a(VECK120051414
p5209
VFNR
p5210
I635929
I635942
tp5211
a(VECK120015264
p5212
VGalR-GalS
p5213
I2238640
I2238655
tp5214
a(VECK120051412
p5215
VFNR
p5216
I1622301
I1622314
tp5217
a(VECK120015594
p5218
VCra
p5219
I2507566
I2507583
tp5220
a(VECK120051410
p5221
VFNR
p5222
I1358957
I1358970
tp5223
a(VECK120034485
p5224
VLrp
p5225
I3654862
I3654876
tp5226
a(VECK120034487
p5227
VLrp
p5228
I3654871
I3654885
tp5229
a(VECK120034483
p5230
VLrp
p5231
I3654825
I3654839
tp5232
a(VECK120012486
p5233
VTorR
p5234
I3886327
I3886336
tp5235
a(VECK125134658
p5236
VPhoP
p5237
I1581992
I1582008
tp5238
a(VECK120012808
p5239
VFNR
p5240
I1278982
I1278995
tp5241
a(VECK120012805
p5242
VMetR
p5243
I4221742
I4221756
tp5244
a(VECK125145895
p5245
VFur
p5246
I2183916
I2183936
tp5247
a(VECK125134650
p5248
VMcbR
p5249
I1314194
I1314215
tp5250
a(VECK125134656
p5251
VPhoP
p5252
I1582012
I1582028
tp5253
a(VECK120012800
p5254
VMetJ
p5255
I4130581
I4130596
tp5256
a(VECK125134654
p5257
VH-NS
p5258
I1314177
I1314186
tp5259
a(VECK120011368
p5260
VFNR
p5261
I655363
I655376
tp5262
a(VECK120015684
p5263
VCRP
p5264
I3665682
I3665703
tp5265
a(VECK125108675
p5266
VLrp
p5267
I3066940
I3066955
tp5268
a(VECK125108673
p5269
VLrp
p5270
I3066916
I3066931
tp5271
a(VECK120013853
p5272
VLrp
p5273
I2310875
I2310889
tp5274
a(VECK125108671
p5275
VLrp
p5276
I3066895
I3066910
tp5277
a(VECK120011366
p5278
VFNR
p5279
I655333
I655346
tp5280
a(VECK120012666
p5281
VDeoR
p5282
I4614686
I4614701
tp5283
a(VECK120012662
p5284
VCRP
p5285
I3989009
I3989030
tp5286
a(VECK120012668
p5287
VDeoR
p5288
I4614962
I4614977
tp5289
a(VECK120034579
p5290
VLldR-LldR
p5291
I3775204
I3775226
tp5292
a(VECK120015669
p5293
VCRP-CRP
p5294
I703025
I703046
tp5295
a(VECK120015665
p5296
VPhoP
p5297
I655709
I655725
tp5298
a(VECK120015667
p5299
VPhoP
p5300
I882755
I882771
tp5301
a(VECK120034575
p5302
VCRP
p5303
I161570
I161591
tp5304
a(VECK120015661
p5305
VPhoP
p5306
I702421
I702437
tp5307
a(VECK120015663
p5308
VPhoP
p5309
I174944
I174960
tp5310
a(VECK120011964
p5311
VArcA
p5312
I4358301
I4358315
tp5313
a(VECK120011968
p5314
VArcA
p5315
I42121
I42135
tp5316
a(VECK120051352
p5317
VCRP
p5318
I3520939
I3520960
tp5319
a(VECK125134652
p5320
VMcbR
p5321
I1314173
I1314194
tp5322
a(VECK120012242
p5323
VArcA
p5324
I2714620
I2714634
tp5325
a(VECK120012244
p5326
VArcA
p5327
I2714637
I2714651
tp5328
a(VECK120012063
p5329
VFis-Fis
p5330
I1156963
I1156977
tp5331
a(VECK120033925
p5332
VFur
p5333
I624075
I624093
tp5334
a(VECK120012060
p5335
VFis-Fis
p5336
I1156984
I1156998
tp5337
a(VECK120033923
p5338
VEvgA
p5339
I2492560
I2492577
tp5340
a(VECK120012066
p5341
VFis-Fis
p5342
I1156902
I1156916
tp5343
a(VECK120033921
p5344
VFur
p5345
I624060
I624078
tp5346
a(VECK120012069
p5347
VFis-Fis
p5348
I1156863
I1156877
tp5349
a(VECK120011819
p5350
VRcsB
p5351
I1554572
I1554585
tp5352
a(VECK120011816
p5353
VFis-Fis
p5354
I2909423
I2909437
tp5355
a(VECK120011814
p5356
VCRP
p5357
I4609153
I4609174
tp5358
a(VECK120011812
p5359
VCRP
p5360
I4609177
I4609198
tp5361
a(VECK120011810
p5362
VLrp
p5363
I4608983
I4608997
tp5364
a(VECK120029987
p5365
VIHF
p5366
I996748
I996760
tp5367
a(VECK125141988
p5368
VCra
p5369
I770477
I770494
tp5370
a(VECK125135229
p5371
VCRP-CRP
p5372
I855062
I855083
tp5373
a(VECK125140734
p5374
VUxuR
p5375
I4593830
I4593847
tp5376
a(VECK120011735
p5377
VFis
p5378
I223297
I223311
tp5379
a(VECK125140732
p5380
VCra
p5381
I1103122
I1103139
tp5382
a(VECK125140730
p5383
VCra
p5384
I1102786
I1102803
tp5385
a(VECK125135220
p5386
VCRP-CRP
p5387
I214196
I214217
tp5388
a(VECK120012116
p5389
VCRP-CRP-CRP
p5390
I3544345
I3544366
tp5391
a(VECK125135222
p5392
VCRP-CRP
p5393
I1168209
I1168230
tp5394
a(VECK125135224
p5395
VCRP-CRP
p5396
I2263384
I2263405
tp5397
a(VECK125135226
p5398
VCRP-CRP
p5399
I3387505
I3387526
tp5400
a(VECK125140739
p5401
VMazE-MazE
p5402
I2909385
I2909409
tp5403
a(VECK125134861
p5404
VFur
p5405
I3214566
I3214584
tp5406
a(VECK125134863
p5407
VFur
p5408
I3214560
I3214578
tp5409
a(VECK125134865
p5410
VFur
p5411
I3214570
I3214588
tp5412
a(VECK125134869
p5413
VCra
p5414
I77026
I77043
tp5415
a(VECK125141483
p5416
VLrp-Lrp-Lrp
p5417
I1236579
I1236593
tp5418
a(VECK125141482
p5419
VLrp-Lrp-Lrp
p5420
I1236548
I1236562
tp5421
a(VECK125141481
p5422
VLrp-Lrp-Lrp
p5423
I1236500
I1236514
tp5424
a(VECK125141480
p5425
VLrp-Lrp-Lrp
p5426
I1236475
I1236489
tp5427
a(VECK125141485
p5428
VLrp-Lrp-Lrp
p5429
I1236635
I1236649
tp5430
a(VECK125141484
p5431
VLrp-Lrp-Lrp
p5432
I1236605
I1236619
tp5433
a(VECK125134888
p5434
VCra
p5435
I2261538
I2261555
tp5436
a(VECK125134886
p5437
VCra
p5438
I4151251
I4151268
tp5439
a(VECK125134884
p5440
VCra
p5441
I3783218
I3783235
tp5442
a(VECK125134882
p5443
VCra
p5444
I3126215
I3126232
tp5445
a(VECK125134880
p5446
VCra
p5447
I2176716
I2176733
tp5448
a(VECK125108953
p5449
VOxyR-OxyR
p5450
I4549479
I4549495
tp5451
a(VECK125108951
p5452
VOxyR-OxyR
p5453
I4549501
I4549517
tp5454
a(VECK125135131
p5455
VGadW-GadX
p5456
I1570185
I1570204
tp5457
a(VECK125135139
p5458
VArgP
p5459
I2246655
I2246674
tp5460
a(VECK120016816
p5461
VNsrR
p5462
I4430035
I4430053
tp5463
a(VECK120016810
p5464
VCbl
p5465
I996821
I996860
tp5466
a(VECK120016818
p5467
VNsrR
p5468
I2683811
I2683829
tp5469
a(VECK120013735
p5470
VIHF
p5471
I3534760
I3534772
tp5472
a(VECK120013737
p5473
VIHF
p5474
I3534716
I3534728
tp5475
a(VECK120013733
p5476
VIHF
p5477
I3534825
I3534837
tp5478
a(VECK125141932
p5479
VLeuO
p5480
I84099
I84119
tp5481
a(VECK125141930
p5482
VLeuO
p5483
I3904859
I3904879
tp5484
a(VECK125141936
p5485
VLeuO
p5486
I84014
I84034
tp5487
a(VECK125141934
p5488
VLeuO
p5489
I84040
I84060
tp5490
a(VECK120011206
p5491
VArgP
p5492
I2342577
I2342596
tp5493
a(VECK125140741
p5494
VMazE-MazE-MazF-MazE-MazF-MazE
p5495
I2909398
I2909424
tp5496
a(VECK125110239
p5497
VIHF
p5498
I1102604
I1102663
tp5499
a(VECK125110237
p5500
VIHF
p5501
I1102726
I1102755
tp5502
a(VECK125110235
p5503
VCpxR
p5504
I1102603
I1102617
tp5505
a(VECK125110233
p5506
VCpxR
p5507
I1102634
I1102647
tp5508
a(VECK125110231
p5509
VCpxR
p5510
I1102656
I1102669
tp5511
a(VECK120013429
p5512
VNarL
p5513
I2403298
I2403313
tp5514
a(VECK120016103
p5515
VNarL
p5516
I4346756
I4346771
tp5517
a(VECK120016106
p5518
VLexA
p5519
I1229951
I1229970
tp5520
a(VECK120013423
p5521
VCRP
p5522
I3071905
I3071926
tp5523
a(VECK120013425
p5524
VPurR
p5525
I2428843
I2428858
tp5526
a(VECK120013427
p5527
VArcA
p5528
I2403285
I2403299
tp5529
a(VECK120030311
p5530
VCspA
p5531
I2337536
I2337542
tp5532
a(VECK120013551
p5533
VSoxS
p5534
I1934442
I1934461
tp5535
a(VECK120013880
p5536
VIHF
p5537
I4213347
I4213359
tp5538
a(VECK120013886
p5539
VLrp
p5540
I3352372
I3352386
tp5541
a(VECK120013555
p5542
VAraC
p5543
I1984399
I1984415
tp5544
a(VECK120013884
p5545
VLrp
p5546
I3352309
I3352323
tp5547
a(VECK120013557
p5548
VCytR
p5549
I4615223
I4615238
tp5550
a(VECK120030319
p5551
VCspA
p5552
I2337564
I2337570
tp5553
a(VECK120013559
p5554
VPurR-PurR
p5555
I2685498
I2685513
tp5556
a(VECK120013889
p5557
VCRP-CRP-CRP
p5558
I1236678
I1236699
tp5559
a(VECK120049006
p5560
VExuR-ExuR
p5561
I3242998
I3243015
tp5562
a(VECK125110251
p5563
VCRP
p5564
I3229574
I3229595
tp5565
a(VECK125109421
p5566
VGadE-GadE
p5567
I3654922
I3654941
tp5568
a(VECK120034048
p5569
VFis
p5570
I1229674
I1229688
tp5571
a(VECK125141227
p5572
VArgP
p5573
I2342486
I2342505
tp5574
a(VECK120011288
p5575
VFis
p5576
I4164312
I4164326
tp5577
a(VECK120011286
p5578
VNac
p5579
I3925032
I3925046
tp5580
a(VECK120016618
p5581
VIclR
p5582
I4213380
I4213394
tp5583
a(VECK120016614
p5584
VFlhDC
p5585
I2001764
I2001780
tp5586
a(VECK120016610
p5587
VFlhDC
p5588
I1999902
I1999918
tp5589
a(VECK120016612
p5590
VFlhDC
p5591
I2001792
I2001808
tp5592
a(VECK120034016
p5593
VFis
p5594
I940097
I940111
tp5595
a(VECK120034014
p5596
VFis
p5597
I940044
I940062
tp5598
a(VECK120034012
p5599
VFis
p5600
I940006
I940020
tp5601
a(VECK120034010
p5602
VFis
p5603
I1636781
I1636795
tp5604
a(VECK125161311
p5605
VRbsR
p5606
I4205661
I4205680
tp5607
a(VECK120034018
p5608
VFis
p5609
I3665768
I3665786
tp5610
a(VECK120034040
p5611
VFis
p5612
I3126292
I3126306
tp5613
a(VECK120013954
p5614
VFis-Fis
p5615
I460689
I460703
tp5616
a(VECK120013957
p5617
VFis-Fis
p5618
I460459
I460473
tp5619
a(VECK120013950
p5620
VFis
p5621
I4197972
I4197986
tp5622
a(VECK120013952
p5623
VFis
p5624
I4197937
I4197951
tp5625
a(VECK120011773
p5626
VCRP
p5627
I4285526
I4285547
tp5628
a(VECK120011771
p5629
VCRP
p5630
I4285473
I4285494
tp5631
a(VECK120011777
p5632
VFis
p5633
I4285505
I4285519
tp5634
a(VECK120011775
p5635
VFis
p5636
I4285466
I4285480
tp5637
a(VECK120011779
p5638
VIHF-IHF
p5639
I4285561
I4285573
tp5640
a(VECK125145818
p5641
VExuR
p5642
I3242896
I3242913
tp5643
a(VECK120011559
p5644
VIHF
p5645
I2550276
I2550288
tp5646
a(VECK120014059
p5647
VFNR
p5648
I4346826
I4346839
tp5649
a(VECK125141918
p5650
VRhaS
p5651
I4099080
I4099096
tp5652
a(VECK120014054
p5653
VNarL
p5654
I4285664
I4285679
tp5655
a(VECK120011553
p5656
VFis
p5657
I2403585
I2403599
tp5658
a(VECK120011551
p5659
VFis
p5660
I2403548
I2403562
tp5661
a(VECK120014050
p5662
VDnaA-DnaA
p5663
I3881958
I3881966
tp5664
a(VECK120011557
p5665
VIHF
p5666
I2403244
I2403256
tp5667
a(VECK120030267
p5668
VAlaS
p5669
I2820102
I2820135
tp5670
a(VECK120011555
p5671
VIHF
p5672
I2403252
I2403264
tp5673
a(VECK120029546
p5674
VFis
p5675
I1820386
I1820400
tp5676
a(VECK120051319
p5677
VPutA
p5678
I1078307
I1078312
tp5679
a(VECK120029544
p5680
VFis
p5681
I3408040
I3408054
tp5682
a(VECK120029542
p5683
VFis
p5684
I3408118
I3408132
tp5685
a(VECK120029540
p5686
VFis
p5687
I3408160
I3408174
tp5688
a(VECK120011480
p5689
VCRP
p5690
I3056640
I3056661
tp5691
a(VECK120051313
p5692
VPutA
p5693
I1078167
I1078172
tp5694
a(VECK120011485
p5695
VMhpR
p5696
I367678
I367692
tp5697
a(VECK120029548
p5698
VFis
p5699
I1820275
I1820289
tp5700
a(VECK120011487
p5701
VCRP
p5702
I367637
I367658
tp5703
a(VECK120051422
p5704
VFis-Fis
p5705
I2518846
I2518860
tp5706
a(VECK120051420
p5707
VFis-Fis
p5708
I2518825
I2518839
tp5709
a(VECK120051424
p5710
VFis-Fis
p5711
I2518866
I2518880
tp5712
a(VECK120051428
p5713
VOxyR
p5714
I4603792
I4603808
tp5715
a(VECK120012871
p5716
VPurR
p5717
I1121882
I1121897
tp5718
a(VECK120012873
p5719
VPurR
p5720
I1003889
I1003904
tp5721
a(VECK120012875
p5722
VLexA
p5723
I2821851
I2821870
tp5724
a(VECK120011396
p5725
VFhlA
p5726
I2599056
I2599069
tp5727
a(VECK120033008
p5728
VLexA
p5729
I1808183
I1808202
tp5730
a(VECK120011392
p5731
VHyfR
p5732
I2599055
I2599072
tp5733
a(VECK120015699
p5734
VAgaR
p5735
I3276708
I3276727
tp5736
a(VECK125108643
p5737
VAraC
p5738
I3728870
I3728886
tp5739
a(VECK120033006
p5740
VLexA
p5741
I4577939
I4577958
tp5742
a(VECK125108641
p5743
VAraC
p5744
I3728847
I3728863
tp5745
a(VECK120011398
p5746
VIHF
p5747
I1366013
I1366025
tp5748
a(VECK120012611
p5749
VArgR-ArgR
p5750
I4152918
I4152935
tp5751
a(VECK120012614
p5752
VArgR
p5753
I289578
I289595
tp5754
a(VECK120012616
p5755
VArgR
p5756
I289557
I289574
tp5757
a(VECK120012618
p5758
VArgR
p5759
I4476381
I4476398
tp5760
a(VECK120012581
p5761
VSoxS
p5762
I710104
I710123
tp5763
a(VECK120012583
p5764
VCRP-CRP-CRP
p5765
I3490449
I3490470
tp5766
a(VECK120012587
p5767
VFNR
p5768
I913134
I913147
tp5769
a(VECK120015676
p5770
VGadE
p5771
I1570149
I1570168
tp5772
a(VECK120012905
p5773
VAda
p5774
I2308496
I2308519
tp5775
a(VECK120012275
p5776
VRcsAB
p5777
I1976402
I1976416
tp5778
a(VECK120012901
p5779
VLexA
p5780
I812655
I812674
tp5781
a(VECK120012903
p5782
VLexA
p5783
I3995930
I3995949
tp5784
a(VECK120015584
p5785
VPrpR-PrpR
p5786
I347711
I347734
tp5787
a(VECK120015580
p5788
VNarP-NarL
p5789
I913169
I913184
tp5790
a(VECK120012058
p5791
VCRP
p5792
I1156884
I1156905
tp5793
a(VECK120012056
p5794
VFNR
p5795
I2599081
I2599094
tp5796
a(VECK120012725
p5797
VNtrC
p5798
I4054384
I4054400
tp5799
a(VECK120012054
p5800
VCRP
p5801
I2599022
I2599043
tp5802
a(VECK120023402
p5803
VH-NS
p5804
I4358297
I4358311
tp5805
a(VECK120012052
p5806
VFNR
p5807
I4460888
I4460901
tp5808
a(VECK120012721
p5809
VCRP
p5810
I4056306
I4056327
tp5811
a(VECK120012050
p5812
VFNR
p5813
I4460919
I4460932
tp5814
a(VECK120012723
p5815
VNtrC-NtrC
p5816
I4056230
I4056246
tp5817
a(VECK120033912
p5818
VRutR-RutR
p5819
I1073343
I1073360
tp5820
a(VECK120033910
p5821
VRutR
p5822
I3664677
I3664696
tp5823
a(VECK120012298
p5824
VH-NS
p5825
I2802899
I2802913
tp5826
a(VECK120033917
p5827
VEvgA
p5828
I1584754
I1584771
tp5829
a(VECK120033915
p5830
VEvgA
p5831
I1582095
I1582112
tp5832
a(VECK120012294
p5833
VH-NS
p5834
I2802853
I2802867
tp5835
a(VECK120012296
p5836
VH-NS
p5837
I2802869
I2802883
tp5838
a(VECK120033919
p5839
VEvgA
p5840
I2491528
I2491545
tp5841
a(VECK120012290
p5842
VH-NS
p5843
I2802814
I2802828
tp5844
a(VECK120012292
p5845
VH-NS
p5846
I2802841
I2802855
tp5847
a(VECK120033927
p5848
VFur-Fur
p5849
I709931
I709949
tp5850
a(VECK120011828
p5851
VMetJ
p5852
I3084577
I3084592
tp5853
a(VECK120011826
p5854
VFadR
p5855
I2439694
I2439710
tp5856
a(VECK120018526
p5857
VPutA
p5858
I1078177
I1078182
tp5859
a(VECK120012129
p5860
VCRP-CRP
p5861
I4549388
I4549409
tp5862
a(VECK125140726
p5863
VCra
p5864
I1102513
I1102530
tp5865
a(VECK120014128
p5866
VArcA
p5867
I131464
I131478
tp5868
a(VECK120012120
p5869
VGntR-GntR-GntR
p5870
I3544403
I3544422
tp5871
a(VECK125135236
p5872
VCRP
p5873
I2583588
I2583609
tp5874
a(VECK125141986
p5875
VCra-Cra-Cra-Cra
p5876
I1860025
I1860042
tp5877
a(VECK125141987
p5878
VCra
p5879
I770448
I770465
tp5880
a(VECK125141984
p5881
VCra-Cra-Cra
p5882
I2906696
I2906713
tp5883
a(VECK125141985
p5884
VCra
p5885
I331241
I331258
tp5886
a(VECK125141983
p5887
VRob
p5888
I1684704
I1684723
tp5889
a(VECK120018545
p5890
VMprA
p5891
I2808749
I2808769
tp5892
a(VECK120018543
p5893
VNikR
p5894
I3611625
I3611652
tp5895
a(VECK120018540
p5896
VSdiA
p5897
I102843
I102860
tp5898
a(VECK120018541
p5899
VSdiA-SdiA
p5900
I102697
I102714
tp5901
a(VECK125135126
p5902
VGadX-GadW
p5903
I3665678
I3665697
tp5904
a(VECK125135124
p5905
VGadX-GadW
p5906
I3665699
I3665717
tp5907
a(VECK125135122
p5908
VGadX-GadW
p5909
I3665721
I3665740
tp5910
a(VECK125109049
p5911
VRcsB
p5912
I3665642
I3665655
tp5913
a(VECK125109046
p5914
VRcsB
p5915
I1570154
I1570167
tp5916
a(VECK125109042
p5917
VOxyR-OxyR
p5918
I4156476
I4156492
tp5919
a(VECK125109040
p5920
VOxyR-OxyR
p5921
I4156454
I4156470
tp5922
a(VECK120016801
p5923
VCpxR
p5924
I2708135
I2708149
tp5925
a(VECK125141231
p5926
VIlvY-IlvY
p5927
I3955897
I3955913
tp5928
a(VECK120016806
p5929
VMarA
p5930
I4402634
I4402653
tp5931
a(VECK120016808
p5932
VMarA
p5933
I3654843
I3654862
tp5934
a(VECK120013095
p5935
VFhlA
p5936
I4297553
I4297566
tp5937
a(VECK120013725
p5938
VFNR
p5939
I34156
I34169
tp5940
a(VECK120013723
p5941
VCRP
p5942
I34166
I34187
tp5943
a(VECK120013721
p5944
VCRP
p5945
I42188
I42209
tp5946
a(VECK120016598
p5947
VFlhDC-FlhDC
p5948
I1130140
I1130156
tp5949
a(VECK120016596
p5950
VQseB
p5951
I3167303
I3167315
tp5952
a(VECK120016594
p5953
VQseB
p5954
I3167770
I3167782
tp5955
a(VECK120013099
p5956
VFhlA
p5957
I2847891
I2847904
tp5958
a(VECK120013728
p5959
VCRP-CRP-CRP-CRP
p5960
I3534771
I3534792
tp5961
a(VECK125110229
p5962
VCpxR
p5963
I1102669
I1102682
tp5964
a(VECK125110221
p5965
VCpxR
p5966
I1102739
I1102751
tp5967
a(VECK125110223
p5968
VCpxR
p5969
I1102726
I1102740
tp5970
a(VECK125110225
p5971
VCpxR
p5972
I1102701
I1102715
tp5973
a(VECK125110227
p5974
VCpxR
p5975
I1102689
I1102704
tp5976
a(VECK120016112
p5977
VNarL
p5978
I3144357
I3144372
tp5979
a(VECK120013439
p5980
VCRP
p5981
I3103570
I3103591
tp5982
a(VECK120016116
p5983
VCpxR
p5984
I4103794
I4103812
tp5985
a(VECK120016114
p5986
VCpxR-CpxR
p5987
I4103749
I4103763
tp5988
a(VECK120013433
p5989
VIHF
p5990
I2403261
I2403273
tp5991
a(VECK120013431
p5992
VFNR
p5993
I2403218
I2403231
tp5994
a(VECK120013437
p5995
VCRP
p5996
I431378
I431399
tp5997
a(VECK120013435
p5998
VDeoR
p5999
I431469
I431484
tp6000
a(VECK120013543
p6001
VCytR
p6002
I431334
I431359
tp6003
a(VECK120013541
p6004
VTorR
p6005
I1057249
I1057258
tp6006
a(VECK120013545
p6007
VCRP
p6008
I4014310
I4014331
tp6009
a(VECK120033348
p6010
VFur
p6011
I623954
I623972
tp6012
a(VECK120033343
p6013
VArgR
p6014
I903034
I903051
tp6015
a(VECK120033342
p6016
VArgR
p6017
I2424934
I2424951
tp6018
a(VECK120033341
p6019
VNsrR
p6020
I1878041
I1878059
tp6021
a(VECK120033340
p6022
VNarL-NarP
p6023
I1878058
I1878073
tp6024
a(VECK120033347
p6025
VFur
p6026
I624102
I624120
tp6027
a(VECK120033346
p6028
VLexA
p6029
I91004
I91023
tp6030
a(VECK120033345
p6031
VBaeR
p6032
I1823860
I1823879
tp6033
a(VECK120033344
p6034
VArgR
p6035
I899889
I899906
tp6036
a(VECK120026348
p6037
VCsgD
p6038
I1103039
I1103049
tp6039
a(VECK125109294
p6040
VDan
p6041
I3204384
I3204390
tp6042
a(VECK120016608
p6043
VFlhDC
p6044
I1986148
I1986164
tp6045
a(VECK120016606
p6046
VFlhDC
p6047
I1986175
I1986191
tp6048
a(VECK120016602
p6049
VFlhDC
p6050
I1130166
I1130182
tp6051
a(VECK120016600
p6052
VFlhDC
p6053
I1130168
I1130184
tp6054
a(VECK120034000
p6055
VFis
p6056
I1636917
I1636931
tp6057
a(VECK120034002
p6058
VFis
p6059
I1636912
I1636926
tp6060
a(VECK120034004
p6061
VFis
p6062
I1636849
I1636863
tp6063
a(VECK120034006
p6064
VFis
p6065
I1636816
I1636830
tp6066
a(VECK120034008
p6067
VFis
p6068
I1636789
I1636803
tp6069
a(VECK120013948
p6070
VFis
p6071
I4198024
I4198038
tp6072
a(VECK120013946
p6073
VFis
p6074
I4198098
I4198112
tp6075
a(VECK120013944
p6076
VCRP
p6077
I4198125
I4198146
tp6078
a(VECK120013942
p6079
VDnaA
p6080
I2631878
I2631886
tp6081
a(VECK120011768
p6082
VIHF-IHF-IHF
p6083
I4285633
I4285645
tp6084
a(VECK120051346
p6085
VPepA
p6086
I4484192
I4484218
tp6087
a(VECK120011765
p6088
VFis-Fis-Fis
p6089
I4285672
I4285686
tp6090
a(VECK120013893
p6091
VCRP
p6092
I1236743
I1236764
tp6093
a(VECK120032163
p6094
VSgrR-SgrR
p6095
I77297
I77330
tp6096
a(VECK120011545
p6097
VFis
p6098
I3878275
I3878289
tp6099
a(VECK120011547
p6100
VOxyR
p6101
I2069356
I2069372
tp6102
a(VECK120029480
p6103
VIHF
p6104
I3352436
I3352448
tp6105
a(VECK120011541
p6106
VFis
p6107
I2337514
I2337528
tp6108
a(VECK120030291
p6109
VArcA
p6110
I243385
I243399
tp6111
a(VECK120011543
p6112
VFis
p6113
I3878228
I3878242
tp6114
a(VECK120014048
p6115
VArgP
p6116
I3882024
I3882043
tp6117
a(VECK120014046
p6118
VYiaJ-YiaJ
p6119
I3740686
I3740706
tp6120
a(VECK120033047
p6121
VTyrR
p6122
I49684
I49701
tp6123
a(VECK120011549
p6124
VFis
p6125
I2403488
I2403502
tp6126
a(VECK120014041
p6127
VIHF
p6128
I3740641
I3740653
tp6129
a(VECK125161324
p6130
VCRP
p6131
I3376872
I3376887
tp6132
a(VECK125161326
p6133
VCRP
p6134
I4422946
I4422961
tp6135
a(VECK125161320
p6136
VCRP
p6137
I1014759
I1014774
tp6138
a(VECK125161322
p6139
VCRP
p6140
I2735098
I2735113
tp6141
a(VECK120048830
p6142
VCRP-CRP
p6143
I2543673
I2543694
tp6144
a(VECK120029550
p6145
VFis
p6146
I1820331
I1820345
tp6147
a(VECK120020662
p6148
VFNR-FNR
p6149
I42121
I42134
tp6150
a(VECK120011498
p6151
VPhoP
p6152
I1906841
I1906857
tp6153
a(VECK120029555
p6154
VFis-Fis
p6155
I1328819
I1328833
tp6156
a(VECK120020665
p6157
VFNR
p6158
I611760
I611773
tp6159
a(VECK125147069
p6160
VNagC
p6161
I1580707
I1580729
tp6162
a(VECK120020667
p6163
VFNR
p6164
I2618986
I2618999
tp6165
a(VECK125147067
p6166
VNagC
p6167
I1580583
I1580605
tp6168
a(VECK120020669
p6169
VFNR
p6170
I3217185
I3217198
tp6171
a(VECK125147062
p6172
VCRP-CRP
p6173
I1686571
I1686592
tp6174
a(VECK120011494
p6175
VPhoP-PhoP-PhoP
p6176
I4465344
I4465360
tp6177
a(VECK120051348
p6178
VCRP
p6179
I117675
I117696
tp6180
a(VECK120012460
p6181
VMalT-MalT
p6182
I4244690
I4244699
tp6183
a(VECK125135113
p6184
VGadX
p6185
I4161486
I4161505
tp6186
a(VECK125135098
p6187
VGadX-GadW
p6188
I1570297
I1570316
tp6189
a(VECK120012869
p6190
VPurR
p6191
I1735896
I1735911
tp6192
a(VECK120012863
p6193
VPurR
p6194
I2693642
I2693657
tp6195
a(VECK120012861
p6196
VPurR
p6197
I4205663
I4205678
tp6198
a(VECK120012867
p6199
VPurR
p6200
I1735808
I1735823
tp6201
a(VECK120012865
p6202
VPurR
p6203
I2619140
I2619155
tp6204
a(VECK120011386
p6205
VLrp-Lrp
p6206
I1554561
I1554575
tp6207
a(VECK120015802
p6208
VModE
p6209
I940084
I940107
tp6210
a(VECK125108656
p6211
VFur
p6212
I1986626
I1986644
tp6213
a(VECK120015804
p6214
VModE
p6215
I794269
I794292
tp6216
a(VECK125108650
p6217
VFur
p6218
I1986608
I1986626
tp6219
a(VECK120015806
p6220
VModE
p6221
I1277130
I1277153
tp6222
a(VECK125108652
p6223
VH-NS-Fur
p6224
I1986614
I1986632
tp6225
a(VECK125108658
p6226
VFur
p6227
I1986632
I1986650
tp6228
a(VECK120012603
p6229
VAraC-AraC
p6230
I70342
I70358
tp6231
a(VECK125141256
p6232
VDpiA-DpiA-DpiA
p6233
I651341
I651363
tp6234
a(VECK120012600
p6235
VCRP-CRP
p6236
I70158
I70179
tp6237
a(VECK120012608
p6238
VArgR-ArgR
p6239
I4152896
I4152913
tp6240
a(VECK120033998
p6241
VFis
p6242
I3098832
I3098846
tp6243
a(VECK125160685
p6244
VLrp
p6245
I1878825
I1878836
tp6246
a(VECK120012593
p6247
VIclR
p6248
I4213396
I4213402
tp6249
a(VECK120013301
p6250
VArcA
p6251
I953823
I953837
tp6252
a(VECK120012597
p6253
VAda
p6254
I2145613
I2145636
tp6255
a(VECK120015643
p6256
VFur
p6257
I1634615
I1634633
tp6258
a(VECK120011943
p6259
VCusR-CusR
p6260
I594732
I594753
tp6261
a(VECK120015641
p6262
VFur
p6263
I1634617
I1634635
tp6264
a(VECK120011945
p6265
VCRP
p6266
I4056175
I4056196
tp6267
a(VECK120015647
p6268
VFur-Fur
p6269
I4603764
I4603782
tp6270
a(VECK120011947
p6271
VCRP
p6272
I4056177
I4056198
tp6273
a(VECK120015645
p6274
VFur-Fur
p6275
I4603793
I4603811
tp6276
a(VECK120013305
p6277
VArcA-ArcA
p6278
I953715
I953729
tp6279
a(VECK120012917
p6280
VCRP
p6281
I2980314
I2980335
tp6282
a(VECK120012260
p6283
VArgR-ArgR
p6284
I3316450
I3316467
tp6285
a(VECK120012915
p6286
VAraC
p6287
I2980266
I2980282
tp6288
a(VECK120012913
p6289
VAraC
p6290
I2980287
I2980303
tp6291
a(VECK120012911
p6292
VFNR
p6293
I3098808
I3098821
tp6294
a(VECK120012266
p6295
VArgR-ArgR
p6296
I3316590
I3316607
tp6297
a(VECK120015245
p6298
VHcaR-HcaR
p6299
I2666956
I2666968
tp6300
a(VECK120051430
p6301
VOxyR
p6302
I4603730
I4603746
tp6303
a(VECK120012919
p6304
VCysB
p6305
I1331803
I1331844
tp6306
a(VECK120051432
p6307
VOxyR
p6308
I2510802
I2510818
tp6309
a(VECK120023166
p6310
VFur
p6311
I3538053
I3538071
tp6312
a(VECK120023167
p6313
VFNR
p6314
I3537978
I3537999
tp6315
a(VECK120023165
p6316
VFNR
p6317
I3352498
I3352511
tp6318
a(VECK120023162
p6319
VFNR
p6320
I1655980
I1655993
tp6321
a(VECK120033908
p6322
VRutR
p6323
I29359
I29374
tp6324
a(VECK120012738
p6325
VCRP-CRP
p6326
I2350594
I2350615
tp6327
a(VECK120012040
p6328
VChbR-ChbR
p6329
I1819802
I1819820
tp6330
a(VECK120012042
p6331
VNagC
p6332
I1819739
I1819761
tp6333
a(VECK120012044
p6334
VNagC
p6335
I1819851
I1819873
tp6336
a(VECK120023168
p6337
VArcA-ArcA-ArcA-ArcA
p6338
I4272100
I4272114
tp6339
a(VECK120012046
p6340
VCRP-CRP-CRP
p6341
I365618
I365639
tp6342
a(VECK120033994
p6343
VFis
p6344
I2714548
I2714562
tp6345
a(VECK120012288
p6346
VH-NS
p6347
I2802795
I2802809
tp6348
a(VECK120012286
p6349
VH-NS
p6350
I2802776
I2802790
tp6351
a(VECK120012284
p6352
VH-NS
p6353
I2802737
I2802751
tp6354
a(VECK120012282
p6355
VIHF
p6356
I4250448
I4250460
tp6357
a(VECK120012280
p6358
VFNR
p6359
I4250459
I4250472
tp6360
a(VECK120011834
p6361
VMetJ
p6362
I638163
I638178
tp6363
a(VECK120011836
p6364
VMetJ
p6365
I4126595
I4126610
tp6366
a(VECK120011830
p6367
VMetJ
p6368
I3084589
I3084604
tp6369
a(VECK120011832
p6370
VMetJ
p6371
I638153
I638168
tp6372
a(VECK120011838
p6373
VMetJ
p6374
I4126605
I4126620
tp6375
a(VECK120048735
p6376
VGalR-GalS
p6377
I3086026
I3086041
tp6378
a(VECK120048731
p6379
VGadX-GadW
p6380
I3651889
I3651908
tp6381
a(VECK120048733
p6382
VGadW-GadX-GadX
p6383
I3654858
I3654877
tp6384
a(VECK120048738
p6385
VGalR-GalS
p6386
I3086091
I3086106
tp6387
a(VECK125135092
p6388
VGadX
p6389
I1570126
I1570145
tp6390
a(VECK120012135
p6391
VGntR
p6392
I3542664
I3542683
tp6393
a(VECK120012137
p6394
VCRP
p6395
I3542637
I3542658
tp6396
a(VECK125141254
p6397
VDpiA-DpiA-DpiA
p6398
I651299
I651321
tp6399
a(VECK120012139
p6400
VIHF
p6401
I3865029
I3865041
tp6402
a(VECK125141137
p6403
VMqsA
p6404
I3166595
I3166609
tp6405
a(VECK120030692
p6406
VFis-Fis
p6407
I3484035
I3484049
tp6408
a(VECK120030695
p6409
VFis-Fis
p6410
I3484015
I3484029
tp6411
a(VECK120018550
p6412
VGadX
p6413
I1570104
I1570123
tp6414
a(VECK120018556
p6415
VGadX
p6416
I3665631
I3665650
tp6417
a(VECK120051466
p6418
VAscG
p6419
I2837448
I2837461
tp6420
a(VECK125135110
p6421
VGadX
p6422
I3665652
I3665671
tp6423
a(VECK125135117
p6424
VGadX
p6425
I4161546
I4161565
tp6426
a(VECK120029608
p6427
VCRP
p6428
I3352455
I3352476
tp6429
a(VECK120016742
p6430
VFlhDC-FlhDC
p6431
I2011121
I2011137
tp6432
a(VECK125141225
p6433
VArgP
p6434
I2342523
I2342542
tp6435
a(VECK125141223
p6436
VMqsA
p6437
I2866280
I2866294
tp6438
a(VECK120016747
p6439
VFlhDC
p6440
I687173
I687189
tp6441
a(VECK125141221
p6442
VArgP
p6443
I3881756
I3881775
tp6444
a(VECK120016745
p6445
VFlhDC
p6446
I687158
I687175
tp6447
a(VECK120051509
p6448
VNsrR
p6449
I1762505
I1762515
tp6450
a(VECK125141229
p6451
VArgP
p6452
I2342433
I2342452
tp6453
a(VECK120013713
p6454
VCRP
p6455
I1078316
I1078337
tp6456
a(VECK120013711
p6457
VCRP
p6458
I1078346
I1078367
tp6459
a(VECK120013717
p6460
VFNR
p6461
I1277068
I1277081
tp6462
a(VECK120013715
p6463
VCRP
p6464
I121953
I121974
tp6465
a(VECK120013719
p6466
VCRP
p6467
I42245
I42266
tp6468
a(VECK125141916
p6469
VRhaS
p6470
I4096640
I4096656
tp6471
a(VECK120051505
p6472
VNsrR
p6473
I1733305
I1733315
tp6474
a(VECK120012431
p6475
VIHF
p6476
I3740639
I3740651
tp6477
a(VECK120013396
p6478
VCytR-CytR-CytR
p6479
I3598919
I3598934
tp6480
a(VECK120013392
p6481
VCRP-CRP-CRP
p6482
I3598956
I3598977
tp6483
a(VECK120016126
p6484
VNorR-NorR
p6485
I2830368
I2830380
tp6486
a(VECK120016123
p6487
VCpxR
p6488
I4589419
I4589433
tp6489
a(VECK120016120
p6490
VCpxR
p6491
I1975356
I1975370
tp6492
a(VECK120013155
p6493
VIHF
p6494
I848265
I848277
tp6495
a(VECK120013404
p6496
VFadR
p6497
I3638094
I3638110
tp6498
a(VECK120013157
p6499
VIHF
p6500
I29240
I29252
tp6501
a(VECK120013402
p6502
VFis
p6503
I4161358
I4161372
tp6504
a(VECK120013151
p6505
VIHF
p6506
I962964
I962976
tp6507
a(VECK120013400
p6508
VLrp
p6509
I931488
I931502
tp6510
a(VECK120013153
p6511
VIHF
p6512
I4098708
I4098720
tp6513
a(VECK120013159
p6514
VIHF
p6515
I847416
I847428
tp6516
a(VECK120013408
p6517
VMalI
p6518
I1697312
I1697329
tp6519
a(VECK120033956
p6520
VFis
p6521
I29439
I29457
tp6522
a(VECK120013379
p6523
VCRP
p6524
I3190064
I3190085
tp6525
a(VECK120013375
p6526
VMngR-MngR
p6527
I765113
I765134
tp6528
a(VECK120013373
p6529
VMngR-MngR
p6530
I765157
I765178
tp6531
a(VECK120033952
p6532
VFis
p6533
I29386
I29404
tp6534
a(VECK125109441
p6535
VNarL
p6536
I1752653
I1752668
tp6537
a(VECK125109440
p6538
VNarL
p6539
I1752644
I1752659
tp6540
a(VECK125109446
p6541
VLeuO
p6542
I3904828
I3904848
tp6543
a(VECK125109444
p6544
VRcsB-BglJ
p6545
I3904811
I3904824
tp6546
a(VECK120012766
p6547
VLacI
p6548
I365639
I365659
tp6549
a(VECK120016630
p6550
VIclR
p6551
I4221675
I4221689
tp6552
a(VECK120030743
p6553
VFis
p6554
I3483998
I3484012
tp6555
a(VECK120013978
p6556
VLrp
p6557
I3948505
I3948519
tp6558
a(VECK120013972
p6559
VCRP
p6560
I3382385
I3382406
tp6561
a(VECK120013970
p6562
VGlpR
p6563
I3560439
I3560458
tp6564
a(VECK120013976
p6565
VLrp
p6566
I3948537
I3948551
tp6567
a(VECK120013974
p6568
VCRP
p6569
I3770098
I3770119
tp6570
a(VECK120011719
p6571
VFis
p6572
I4205736
I4205750
tp6573
a(VECK120011711
p6574
VFis
p6575
I3427236
I3427250
tp6576
a(VECK120011713
p6577
VFis
p6578
I4205807
I4205821
tp6579
a(VECK120011715
p6580
VFis
p6581
I4205778
I4205792
tp6582
a(VECK120011717
p6583
VFis
p6584
I4205762
I4205776
tp6585
a(VECK125109811
p6586
VPhoP
p6587
I1211505
I1211520
tp6588
a(VECK120013577
p6589
VRcsAB
p6590
I2021728
I2021742
tp6591
a(VECK120013574
p6592
VCRP-CRP
p6593
I2531449
I2531470
tp6594
a(VECK120013571
p6595
VCRP-CRP
p6596
I2531577
I2531598
tp6597
a.