(lp1
F0.09156358303095001
aF0.14694240049424667
aF-0.20591548620200004
aF-0.4479268956748037
aF0.13262930772595835
aF0.11918318002461109
aF-0.087560824735555556
aF-0.30494632103700003
aF-0.50242888851337919
aF-0.048221265833307048
aF-0.090709347248000047
aF-0.0055437079868322055
aF-2.8594964798313098
aF0.34423120566623333
aF0.18182469813488
aF0.19671356326650002
aF-0.073734567702550047
aF1.0466078305687667
aF0.13082236580366668
aF-0.31694969059066663
aF0.22717551459400001
aF0.42898665014933335
aF0.23935241776175001
aF-0.39743344145543003
aF-0.67330850521098895
aF-0.22263090943783334
aF-0.25023617523066666
aF-0.72658314545833347
aF0.12611857190722223
aF-0.27519245941538889
aF0.016806217285513333
aF0.32357672744966665
aF-0.15949183214666665
aF-0.045730607930188877
aF0.15645883869406998
aF-0.83136637934625857
aF-0.36746872309983331
aF0.10515402384593332
aF-0.20023608206099999
aF-0.88782169813154999
aF0.24078253613963332
aF0.52106944456266668
aF0.1492977829163111
aF0.32556788938766662
aF0.67756453899999991
aF-0.020978704736854155
aF-0.22119871535299998
aF-0.25128673985227534
aF-0.17888124898850002
aF-0.034241532309266659
aF0.31209571845748002
aF-0.15256964158732
aF-0.14249589471130114
aF-0.051534490237973324
aF0.17453023089021996
aF0.041900786592907399
aF-0.14099528892766666
aF-0.064459431622133329
aF-0.13574260257873402
aF-0.18386548511913334
aF-0.60569675339000006
aF-1.4224993753786499
aF-1.3790771281499998
aF-0.1699224841725
aF-0.095564107786446251
aF-0.90364859265271336
aF0.63497698088184673
aF0.10335223527740833
aF-0.076596110533834208
aF0.076261220349016653
aF0.046683163285986672
aF0.2702399928376667
aF0.10358057066673222
aF-4.2277203845099995
aF-0.23200591847453333
aF0.12440421273001832
aF0.22386535728566667
aF0.63309816385899997
aF0.039832382040108319
aF0.19882328041666664
aF0.26448676745156668
aF0.19118134307393331
aF-0.030395236228875227
aF-0.11963734624257499
aF0.096790694226136939
aF0.052007097657654197
aF-0.045734732492633309
aF0.33264273294466667
aF-0.60595780191726112
aF0.6238139107216667
aF0.11862004030416666
aF0.050536122879133463
aF-0.11745486060262486
aF0.028261624057544437
aF-0.087338359078659999
aF0.11556540387325002
aF0.093943466464430747
aF-0.17905255526781486
aF-2.3317685266991335
aF0.33115641281543334
aF0.17839662993295111
aF0.053971010373480025
aF-0.10182987784870629
aF0.16011381123043333
aF-0.054279990863118611
aF-2.6572636316741107
aF-0.57804835872932214
aF0.18776057801137777
aF-0.087128689513176608
aF0.14698910255031
aF0.16391889590416667
aF0.18461411190651666
aF0.0094419319870066611
aF0.009024519177854665
aF0.17118492110410918
aF-0.2293472788566667
aF-0.11903204852366667
aF0.16694447254445
aF-0.34003043680045003
aF-0.265420393663162
aF-0.4089098450951667
aF-0.69439777159391669
aF-0.21086486982144445
aF0.25118939976583332
aF0.14965550104095557
aF0.1257292138952
aF0.17544867580576667
aF-0.012379516392394986
aF-0.085438303580804134
aF-0.3777444409953617
aF-0.025518386266666679
aF-0.51729256034243998
aF0.097086995943188911
aF-0.18930290507526734
aF-0.65396449871992346
aF0.087707371276666654
aF-0.99905002263201104
aF0.20576653073100001
aF0.49436641824595551
aF-0.20783915738873335
aF-0.044492009918079993
aF0.18922802065937538
aF0.085497516324650025
aF0.048122154572800002
aF0.10290160394735333
aF-0.69128977448390005
aF-0.51450862148638332
aF-0.85066492539504757
aF0.14614340237479514
aF0.16163821935192221
aF0.39435733351469998
aF-0.0061556734595011259
aF0.11262738947699523
aF0.51453377721986004
aF-0.15343693738700001
aF0.065706253781509349
aF0.11076093803885005
aF0.10973919696551609
aF0.25231410928366665
aF0.16857121417283336
aF-1.1369248574841668
aF0.10599509618154114
aF0.048508031158449989
aF0.19332758013856666
aF0.070374233874583345
aF0.17534237667474445
aF-0.26510906800763018
aF-0.079330763294848908
aF0.62342012825309046
aF-1.9293010886034498
aF0.041868397690597178
aF0.15546616798166668
aF0.020661859415466666
aF0.12279199373725333
aF-0.31356449997265928
aF-0.10173073545761667
aF-0.16627654158863334
aF-0.16623870854339443
aF0.097627357395437778
aF-0.4410645746586333
aF0.19908726970365712
aF0.031537420374000015
aF0.12331283769927498
aF-0.21411500872568337
aF0.14123367245214166
aF-0.087957968269777781
aF-0.17542455839833329
aF0.0097051255755317405
aF0.15209770992533334
aF-0.24579011577061752
aF-0.026625472916183328
aF-0.11588372137333335
aF-0.13561994778599998
aF0.14478221915980832
aF0.14037643498322666
aF-0.57022002861807142
aF-0.31762225076177542
aF0.076415017526238097
aF-0.14748154888290796
aF0.41254216458699999
aF0.15162891098107578
aF0.056826571461066691
aF0.40348939344398566
aF0.2150318287092583
aF0.039532589730504761
aF0.065809083330911122
aF-0.09099961272663333
aF0.25487412689454997
aF0.28796509674474169
aF0.045723364853288886
aF-0.18791831891435554
aF-0.31079569075978336
aF-0.021739143938233348
aF-0.65576879433523327
aF-0.60513801221209296
aF-0.56608586792973881
aF-0.69599600321303323
aF-0.040956014599400008
aF-0.71747357758477781
aF-0.54676922639146674
aF-0.051651515034974997
aF0.16497198221196666
aF-2.525090253971066
aF-0.98073721997198438
aF-5.2796930989966668
aF-0.22305062585402
aF-1.1289789990303751
aF-1.1757607334201001
aF0.23949275440555556
aF-0.32568194505791487
aF0.014186555655790467
aF-0.013596256145571441
aF0.20036137974899995
aF0.099092008627431005
aF-0.11525773581254166
aF0.20205349295900002
aF-0.57066414833021517
aF0.4491826940946666
aF-0.043718411440783311
aF0.32059503710333331
aF-0.62327307268805909
aF-0.57678222112806021
aF-0.30694423997600834
aF0.16166299257637493
aF-0.35709179795935175
aF-0.25134922789718667
aF-0.2223211423789975
aF-1.8988188837716666
aF-0.34982400359576671
aF0.016759411332083345
aF0.19875691391739334
aF-0.3667802053234
aF-0.24131467115549998
aF-0.10793080425047333
aF-1.1479431206915474
aF-0.2544086254850117
aF-0.66080491611208536
aF-1.895139846320895
aF0.21215488895138512
aF0.033196059438666672
aF-0.14920983596786666
aF-0.019911241280966652
aF-0.24630932782081111
aF0.47945675056766673
aF-0.082809198371366646
aF0.060798383671733319
aF0.35856206209633329
aF-0.23877786691839997
aF-0.041978008854972305
aF0.50034052062141121
aF-0.56168716391403706
aF-0.14582278978243332
aF-0.17348615539833334
aF0.16342920359031915
aF0.14924370542433332
aF-0.10593428059381531
aF-0.35884707361648333
aF-1.2970478548212496
aF0.3606711641873333
aF0.38912091517866659
aF-0.027279463813574073
aF0.20477133080166665
aF0.57369253069105008
aF-0.0049142166555018836
aF-0.45890786415871659
aF0.0019048022131666759
aF-0.3136037103140667
aF-0.27935486092033329
aF-0.78122742063833339
aF0.081843593704379325
aF-0.046513392108071656
aF-0.12197561601883333
aF-0.14835942898481666
aF0.17287209367019993
aF-0.0071848863863132476
aF0.23328199830337784
aF0.12678142551266666
aF-0.87480555881130007
aF0.026343017300249974
aF0.12860383900217334
aF-0.21489592050299999
aF0.17184818781346833
aF0.92450945695766673
aF-0.064491383848188893
aF-0.75609069240438886
aF0.15009985176826665
aF-1.2419415405271665
aF0.27910333925853331
aF-0.18264058154410004
aF0.020116298591550025
aF0.12162911915016666
aF-0.10487508677566668
aF-0.046552707280666704
aF-0.012928464306762512
aF-0.61285586993345464
aF0.10784753231717777
aF-0.26103701529913331
aF-0.17763234361436667
aF-0.12082973973716667
aF0.14181881454110837
aF-0.12334108751055556
aF-0.37458202848711669
aF-0.013743053294100008
aF-0.12467603762370398
aF0.052368070179206666
aF-0.26793593562016998
aF0.16848111646914002
aF0.27984218706130004
aF0.18237015420979522
aF-0.5555815422303334
aF0.36813136110030004
aF-0.0086143504207833368
aF0.10101353293089381
aF0.28187566036938161
aF0.35378344948599999
aF0.029807547295333376
aF-0.15261456061733339
aF0.08384203008707776
aF0.026950106068233327
aF0.062166633819808324
aF-0.93438460204733331
aF-0.10160095165516669
aF-0.11929992346433334
aF-0.84209122506333323
aF0.33050973500266662
aF0.24223225583268995
aF0.30596392850081533
aF-0.54886677420602958
aF0.21733540021431666
aF-0.29147109697966661
aF-0.18003654103646671
aF0.19886686813594998
aF0.041295362116113857
aF-0.071859261912704975
aF0.0063779789664500002
aF0.14057163642354167
aF-0.42217146713200004
aF0.061723063797713335
aF0.27483481883441885
aF0.42839529587733327
aF0.26116965617723337
aF0.20602460014016666
aF0.37684502121288893
aF0.0051855629813080022
aF0.22115071830905927
aF0.36872763957110005
aF0.019058968310555559
aF-0.12107424928793502
aF-0.57414767971811109
aF0.57025517403553339
aF0.056059534865222228
aF0.21206694233397863
aF-0.080633852723977786
aF0.086051417408585407
aF0.039004127896499999
aF-0.32243546100210002
aF-0.14146794344811109
aF-0.1822611148811
aF0.072111624481840816
aF0.46640316032111101
aF-0.17848295545866669
aF-0.63447645849323797
aF0.074403389630058311
aF0.11239244523803334
aF-0.91920903021769174
aF-0.41565393298666664
aF-0.21472767535747445
aF0.0082014426801166832
aF-0.020709426127444433
aF0.23065018281466665
aF0.095624906829166675
aF-0.60055839532549171
aF0.37790769167465554
aF0.40472007051477782
aF-0.042437888774653369
aF-0.48488482721944443
aF-0.0045957748957493327
aF0.002680900885099998
aF-0.01937175071199999
aF0.2533998360839167
aF0.28305664869830832
aF0.10407009820594999
aF-0.15678240294508333
aF0.19859712108655553
aF-0.00038005499520000113
aF-0.069004734634666665
aF-0.5095609104759834
aF-0.0022148563726899894
aF0.2182333841781734
aF-0.56589758089122832
aF-0.32801928110049999
aF-0.20318319638555332
aF0.25359384633958004
aF0.19315393823066665
aF-0.45858403656465996
aF-2.5326765162176668
aF0.25393193257733332
aF0.48757070778945
aF0.12819770655538887
aF0.27880365500966664
aF0.34461224897700998
aF0.19770109106757086
aF0.15175602656995557
aF-1.509849602409
aF-0.096822815971976658
aF-0.031049482547500007
aF0.14116782486844445
aF0.044557088239333333
aF-0.070191719976800002
aF0.083238260071674064
aF0.29153034280314444
aF-0.65756965442966664
aF0.23658028248327778
aF0.13969103604562225
aF-0.10713450259306664
aF-0.12237533936433331
aF-0.026068780228506661
aF0.1750169057015
aF0.15141501282116668
aF0.088592132021928574
aF0.14924370542320001
aF0.16466499307066665
aF0.51779901939560835
aF1.0108978723313333
aF0.099177017408666662
aF-0.16646072852674443
aF0.061956212769835553
aF-0.24448353374436771
aF-1.1161763243121667
aF0.43496246329499999
aF-0.19185295245300002
aF0.090342527399666694
aF0.12787077889571666
aF-7.0972976475233338
aF-0.22110006537100002
aF-0.37059442549849991
aF0.35035804501926665
aF0.13721226448333335
aF0.2078131426792833
aF-0.48573386162212162
aF-1.1648042270140508
aF-0.18983090534452227
aF0.73065792434333332
aF-0.010503546458058436
aF0.019717601884700019
aF0.31076993270413328
aF0.093339954396461894
aF-0.87198216570477782
aF0.069720986758848885
aF0.38595651433861672
aF-1.1750632117756294
aF-0.022280685519100004
aF0.4521441897041889
aF-0.024403291586983331
aF-1.1765162690762667
aF0.068460891397055565
aF0.23858297653999996
aF0.13652890589860753
aF0.16968842862666667
aF-0.43740379480053332
aF-0.1944316686388334
aF-1.5537261078175557
aF-0.21845372753366665
aF0.039809730540268908
aF-0.06276401791944447
aF0.5631428257202834
aF0.084930785608233347
aF-0.24456968526752221
aF0.32749079921050001
aF0.073221223487758336
aF0.041399811049640002
aF0.32067935040231665
aF0.01749555136287502
aF0.034555211617550007
aF0.074049996357966677
aF-1.5269460119743332
aF0.50004084943110005
aF0.32842853633566665
aF-0.23285366880583336
aF0.41959724563700002
aF0.00024141769529998727
aF0.27537478620220551
aF0.11813346519026667
aF-0.22623023490887778
aF0.18593827366652227
aF0.040782579730358336
aF0.092770250470650004
aF0.01216132150347502
aF-0.10387348017301336
aF-0.046030070174295987
aF0.11163520227166665
aF-0.02637453599966667
aF0.076357902170873335
aF0.097064524035949992
aF-0.29915558597933334
aF-0.36384788146636426
aF0.018836098332800005
aF0.22942190450395003
aF-5.8170522277653331
aF0.14844707628533335
aF0.24284108787400002
aF0.00063481141839999422
aF-1.1516432372454999
aF-0.86609859648955556
aF0.050166492632616667
aF-0.042489162952949994
aF0.24429632621694999
aF0.21133085691934
aF-0.55002504404533326
aF-0.030720624630466646
aF0.10867433614867462
aF-0.054591057300333347
aF-0.083655357804744437
aF-0.15718470742389259
aF0.23505918323637334
aF-0.073702679353917472
aF0.35482129724183337
aF-0.90237344649466678
aF0.004427970204711122
aF-0.92538097533879993
aF0.045777748042477778
aF-0.15918169828249837
aF-0.23663583728073334
aF-0.21900425566248083
aF-0.1840896279091
aF-0.20771297158194732
aF-0.027752290468988906
aF-0.038919929142633342
aF-0.21513131795474447
aF0.26541976497855557
aF0.020777702477666665
aF0.091656095713433375
aF0.32574265592550888
aF-0.72522780987067326
aF0.53784055335466663
aF0.22293900583223336
aF0.38732554464609997
aF0.096707811915866693
aF0.39947363150963339
aF0.17454040231273332
aF-0.05361706051424997
aF0.45601503696078333
aF-0.63942313032433329
aF-0.25785173544399997
aF-4.2683675357583333
aF-0.44005835373313335
aF0.42565263030294437
aF-0.73917706116199999
aF0.17573948907116668
aF-0.11934792592726666
aF-0.0045998688080342905
aF-1.943226523852883
aF-0.24215122695239999
aF0.43089326217549995
aF0.70629771259029994
aF-0.81639903764233324
aF-2.5173714112583334
aF-0.4764373151027233
aF0.048437678451653345
aF0.078946512108883343
aF0.76040948437589995
aF0.045479701799716672
aF0.67083857835333338
aF0.084831112230000005
aF-0.20002485394799999
aF0.27184863685900001
aF0.21000421302963335
aF-0.280348028124
aF-2.7790060012800004
aF0.072008331124
aF0.3334172667897084
aF0.095844239798333328
aF0.46093476998666666
aF0.56488870363733334
aF0.066218070961806666
aF0.39577917586099992
aF-0.16191276555136003
aF-0.28035747435766667
aF0.13344615861056999
aF0.055317778852649969
aF0.38800218711251783
aF0.21517320196766668
aF0.37264378344430832
aF0.66090182705366673
aF-0.085025194457266667
aF-0.1909790543954778
aF0.08866362225433333
aF-0.25087833291111467
aF-0.67386570484579522
aF-0.078886516879253341
aF-1.6978953980443334
aF-0.0089357982517000081
aF0.13409756587441668
aF-0.056371490728999996
aF-0.039777372782441665
aF-0.21342521143932222
aF-0.31026016899366665
aF-1.1400483477046917
aF0.2623317967256667
aF0.26527811973244003
aF0.33008483393766669
aF0.29001413378094448
aF0.30191054649566668
aF0.088577760842999967
aF-0.20249158384397892
aF0.16362623432259998
aF0.072006911838772197
aF0.035063297620499999
aF-0.014588003414999995
aF-0.73745884130458805
aF-0.17640539763600002
aF0.077771439917651508
aF-0.002564185217204462
aF-0.26857960883339999
aF-0.060222105402276682
aF0.28437728718280664
aF-0.42983261334137035
aF0.24613972280833332
aF0.21020562233566667
aF-0.83010438479674442
aF0.24722824636170002
aF-0.19416466077775554
aF-0.16472579480506669
aF-0.45296969764868883
aF0.37877435294343331
aF0.18697751360138576
aF0.18794775217809523
aF0.028654476486804165
aF-0.42127834809611336
aF-0.050803469685545
aF-0.047111927594000007
aF0.010551955957426667
aF0.0036842672536666551
aF-0.094514865652666646
aF-0.013835997013054329
aF0.15146770887633337
aF-0.36080323035776668
aF-0.035305105979233337
aF0.015533546692166667
aF-0.39630493403166667
aF0.22913473985486665
aF0.089861869342000009
aF-0.61715268477166674
aF0.26361077578543329
aF-0.033621034026966652
aF-0.87716118834289991
aF0.8765429197946667
aF0.23382923617269999
aF-3.0060811160766665
aF-0.071577008878366655
aF-0.16894463728655179
aF0.13699847473778334
aF-0.19947237990855329
aF0.26526278090547772
aF-0.40277149417033331
aF-0.92572035601794
aF-0.36668814562762214
aF0.34707543846810335
aF0.046297673608666663
aF-0.16614085675832505
aF-0.10764123391660001
aF-0.16096558226888888
aF-0.10738734288093403
aF-0.78707105102907216
aF0.33506042852632495
aF0.0092449780959666453
aF-0.10468842701215002
aF0.10366341871025332
aF-0.41737725739408343
aF0.51575559660666659
aF0.3290589217403333
aF-0.083066605363766657
aF-0.065247891939833325
aF-1.0862974457448458
aF0.058314208353899999
aF0.11402512448411334
aF0.067699396361388886
aF0.15670429854374285
aF0.095844239798333328
aF0.41685094068154999
aF-0.35490210407093331
aF0.044552775801642984
aF-0.47444245782666666
aF-0.029872076217066629
aF-0.23677910501133334
aF0.24632885757002998
aF-1.0260156472544666
aF-2.6531322617651338
aF0.12558169869308888
aF-0.21310453769833335
aF-0.034871039072066665
aF-0.16398897314073332
aF-0.1772735856419583
aF0.0053095781714000007
aF-1.2839216775737332
aF-0.66544464599095632
aF0.18654114885049999
aF0.23670623264183333
aF0.24095797660818338
aF0.32229549418703329
aF-0.044915373424811111
aF-0.2139000421842733
aF0.20160951161663335
aF0.22201751883508666
aF-0.5640663816239333
aF0.10729896167981111
aF-0.048925884017772509
aF-0.070589454518393338
aF-0.19273615662333335
aF0.21980667368028892
aF-2.517500022113333
aF-0.44005494330244166
aF0.21128666454086664
aF-2.4163881832497336
aF-0.27049385953496663
aF0.4493984809076666
aF0.022570414089453324
aF0.030670160376273348
aF0.35701392474793336
aF0.27031569121278004
aF-0.20829983703879332
aF0.051649789015000003
aF-0.1840896279091
aF-0.012565236965666674
aF-0.025320770072387516
aF0.31647680150108332
aF-0.51838735286812088
aF-0.28129325618958895
aF0.15856154008104165
aF0.398730783092
aF0.37600998917820599
aF-1.0670337828897822
aF-0.094504460508342866
aF-0.2846962778731667
aF-0.1765712954709556
aF-0.67959667525138667
aF0.72075592242550002
aF-0.046272740821333334
aF-0.15957994943500001
aF0.37871443481316663
aF0.33655922168485003
aF0.22497594384985994
aF0.14864415489883337
aF-1.15305315978
aF-0.55304074348706667
aF0.00099188415452382728
aF0.13784198871466852
aF-0.19398221197855559
aF0.38933913732151665
aF-0.0020986507469333282
aF0.055255317040199987
aF0.6428986321543334
aF0.14264557852608664
aF0.15638407798316667
aF-0.86487135262333326
aF0.48295106483027772
aF0.11698626330895916
aF-0.35802664188279998
aF0.37388254685368327
aF0.090284451395999998
aF-0.14680332477541669
aF0.33238658069120003
aF-0.27319966135578733
aF-0.46589687834545007
aF0.026138368830709541
aF0.03508964520616667
aF0.17816641459111668
aF0.22842842482414666
aF-0.144357971193425
aF0.06683035435233331
aF0.29460734911247394
aF-0.0063446865949914654
aF-0.61909432735425574
aF0.90358850736966667
aF0.13386197953133244
aF0.0017839738439125185
aF0.13843572857264996
aF-0.23991057776852501
aF0.33432104358550002
aF-0.65256361679433328
aF-0.2060480356235371
aF0.1160651475739
aF0.3286355164365326
aF0.689739831006
aF0.17116448442798329
aF0.2464285207053333
aF0.077126863419408331
aF-0.055959910056866659
aF0.14924370542423335
aF-1.6792319036333334
aF0.15503041151424762
aF0.29837942511618332
aF0.31118928085429109
aF0.20173698783793331
aF0.34871223458717165
aF-0.45829905450655567
aF-0.017117321665266676
aF0.20681495861622226
aF0.10141979870726663
aF0.27005540492651053
aF-0.51835682041779163
aF0.13530364685933333
aF-0.6247306460147416
aF0.040880962230370278
aF0.049570358259040014
aF0.20990965000499998
aF0.16169381098916666
aF0.26705754186566671
aF-0.95806565953999989
aF0.16753418644701668
aF-0.14512828169766667
aF0.21103975468648331
aF0.47744293621599998
aF0.10848221695071109
aF0.11353823514235835
aF-0.34782417308171432
aF-0.16076294515849165
aF0.18069895459256669
aF0.054698542662533343
aF0.3043667637005667
aF0.17040034732969167
aF0.17409011978420832
aF-0.13765828197718888
aF-0.45206020433100003
aF0.48474505016179997
aF0.17644543021244447
aF-0.30654510796907403
aF0.41877835165208327
aF0.038945278478677764
aF-0.18985281151474168
aF-0.18408962790988337
aF0.42581651316633334
aF-0.30743702465836725
aF0.2629599987831
aF0.046610396035899976
aF-0.33527785982289449
aF0.29205188858956188
aF-1.0048509529834169
aF-0.0074911100030416707
aF-0.20493815676586563
aF0.084140052484988903
aF-0.1840896279101
aF0.28266349511121669
aF-0.14907870005811102
aF-0.045410034838966662
aF-0.56734967488550003
aF0.038737567823241018
aF0.94221598953800001
aF0.10509360674956665
aF-0.32243546100166665
aF0.054248341251166676
aF0.79320600675978337
aF-0.33850181747302222
aF0.10546200116504996
aF-0.15509313158599999
aF0.11574046497966668
aF0.14657536299820473
aF-0.14432446683683334
aF-0.16884276023820005
aF-2.723318576018583
aF0.0069170166524333441
aF0.2106558325076667
aF-0.50853749055960173
aF0.036381892477233342
aF-0.40111845613281105
aF-0.043770336701750005
aF0.31118636318222498
aF0.044891095100426666
aF-0.55391542003185557
aF-0.31667683869689994
aF0.029675794656400006
aF-0.54275681014978339
aF-4.020681296016666
aF0.015137403737569999
a.